
FreeRTOS.elf:     file format elf32-littlearm


Disassembly of section .apm32_isr_vector:

08000000 <g_apm32_Vectors>:
 8000000:	20020000 	andcs	r0, r2, r0
 8000004:	08001cb9 	stmdaeq	r0, {r0, r3, r4, r5, r7, sl, fp, ip}
 8000008:	08001e81 	stmdaeq	r0, {r0, r7, r9, sl, fp, ip}
 800000c:	08001e85 	stmdaeq	r0, {r0, r2, r7, r9, sl, fp, ip}
 8000010:	08001e89 	stmdaeq	r0, {r0, r3, r7, r9, sl, fp, ip}
 8000014:	08001e8d 	stmdaeq	r0, {r0, r2, r3, r7, r9, sl, fp, ip}
 8000018:	08001e91 	stmdaeq	r0, {r0, r4, r7, r9, sl, fp, ip}
	...
 800002c:	08000461 	stmdaeq	r0, {r0, r5, r6, sl}
 8000030:	08001e95 	stmdaeq	r0, {r0, r2, r4, r7, r9, sl, fp, ip}
 8000034:	00000000 	andeq	r0, r0, r0
 8000038:	080004c1 	stmdaeq	r0, {r0, r6, r7, sl}
 800003c:	08000525 	stmdaeq	r0, {r0, r2, r5, r8, sl}
 8000040:	08001d09 	stmdaeq	r0, {r0, r3, r8, sl, fp, ip}
 8000044:	08001d09 	stmdaeq	r0, {r0, r3, r8, sl, fp, ip}
 8000048:	08001d09 	stmdaeq	r0, {r0, r3, r8, sl, fp, ip}
 800004c:	08001d09 	stmdaeq	r0, {r0, r3, r8, sl, fp, ip}
 8000050:	08001d09 	stmdaeq	r0, {r0, r3, r8, sl, fp, ip}
 8000054:	08001d09 	stmdaeq	r0, {r0, r3, r8, sl, fp, ip}
 8000058:	08001d09 	stmdaeq	r0, {r0, r3, r8, sl, fp, ip}
 800005c:	08001d09 	stmdaeq	r0, {r0, r3, r8, sl, fp, ip}
 8000060:	08001d09 	stmdaeq	r0, {r0, r3, r8, sl, fp, ip}
 8000064:	08001d09 	stmdaeq	r0, {r0, r3, r8, sl, fp, ip}
 8000068:	08001d09 	stmdaeq	r0, {r0, r3, r8, sl, fp, ip}
 800006c:	08001d09 	stmdaeq	r0, {r0, r3, r8, sl, fp, ip}
 8000070:	08001d09 	stmdaeq	r0, {r0, r3, r8, sl, fp, ip}
 8000074:	08001d09 	stmdaeq	r0, {r0, r3, r8, sl, fp, ip}
 8000078:	08001d09 	stmdaeq	r0, {r0, r3, r8, sl, fp, ip}
 800007c:	08001d09 	stmdaeq	r0, {r0, r3, r8, sl, fp, ip}
 8000080:	08001d09 	stmdaeq	r0, {r0, r3, r8, sl, fp, ip}
 8000084:	08001d09 	stmdaeq	r0, {r0, r3, r8, sl, fp, ip}
 8000088:	08001d09 	stmdaeq	r0, {r0, r3, r8, sl, fp, ip}
 800008c:	08001d09 	stmdaeq	r0, {r0, r3, r8, sl, fp, ip}
 8000090:	08001d09 	stmdaeq	r0, {r0, r3, r8, sl, fp, ip}
 8000094:	08001d09 	stmdaeq	r0, {r0, r3, r8, sl, fp, ip}
 8000098:	08001d09 	stmdaeq	r0, {r0, r3, r8, sl, fp, ip}
 800009c:	08001d09 	stmdaeq	r0, {r0, r3, r8, sl, fp, ip}
 80000a0:	08001d09 	stmdaeq	r0, {r0, r3, r8, sl, fp, ip}
 80000a4:	08001d09 	stmdaeq	r0, {r0, r3, r8, sl, fp, ip}
 80000a8:	08001d09 	stmdaeq	r0, {r0, r3, r8, sl, fp, ip}
 80000ac:	08001d09 	stmdaeq	r0, {r0, r3, r8, sl, fp, ip}
 80000b0:	08001d09 	stmdaeq	r0, {r0, r3, r8, sl, fp, ip}
 80000b4:	08001d09 	stmdaeq	r0, {r0, r3, r8, sl, fp, ip}
 80000b8:	08001d09 	stmdaeq	r0, {r0, r3, r8, sl, fp, ip}
 80000bc:	08001d09 	stmdaeq	r0, {r0, r3, r8, sl, fp, ip}
 80000c0:	08001d09 	stmdaeq	r0, {r0, r3, r8, sl, fp, ip}
 80000c4:	08001d09 	stmdaeq	r0, {r0, r3, r8, sl, fp, ip}
 80000c8:	08001d09 	stmdaeq	r0, {r0, r3, r8, sl, fp, ip}
 80000cc:	08001d09 	stmdaeq	r0, {r0, r3, r8, sl, fp, ip}
 80000d0:	08001d09 	stmdaeq	r0, {r0, r3, r8, sl, fp, ip}
 80000d4:	08001d09 	stmdaeq	r0, {r0, r3, r8, sl, fp, ip}
 80000d8:	08001d09 	stmdaeq	r0, {r0, r3, r8, sl, fp, ip}
 80000dc:	08001d09 	stmdaeq	r0, {r0, r3, r8, sl, fp, ip}
 80000e0:	08001d09 	stmdaeq	r0, {r0, r3, r8, sl, fp, ip}
 80000e4:	08001d09 	stmdaeq	r0, {r0, r3, r8, sl, fp, ip}
 80000e8:	08001d09 	stmdaeq	r0, {r0, r3, r8, sl, fp, ip}
 80000ec:	08001d09 	stmdaeq	r0, {r0, r3, r8, sl, fp, ip}
 80000f0:	08001d09 	stmdaeq	r0, {r0, r3, r8, sl, fp, ip}
 80000f4:	08001d09 	stmdaeq	r0, {r0, r3, r8, sl, fp, ip}
 80000f8:	08001d09 	stmdaeq	r0, {r0, r3, r8, sl, fp, ip}
 80000fc:	08001d09 	stmdaeq	r0, {r0, r3, r8, sl, fp, ip}
 8000100:	08001d09 	stmdaeq	r0, {r0, r3, r8, sl, fp, ip}
 8000104:	08001d09 	stmdaeq	r0, {r0, r3, r8, sl, fp, ip}
 8000108:	08001d09 	stmdaeq	r0, {r0, r3, r8, sl, fp, ip}
 800010c:	08001d09 	stmdaeq	r0, {r0, r3, r8, sl, fp, ip}
 8000110:	08001d09 	stmdaeq	r0, {r0, r3, r8, sl, fp, ip}
 8000114:	08001d09 	stmdaeq	r0, {r0, r3, r8, sl, fp, ip}
 8000118:	08001d09 	stmdaeq	r0, {r0, r3, r8, sl, fp, ip}
 800011c:	08001d09 	stmdaeq	r0, {r0, r3, r8, sl, fp, ip}
 8000120:	08001d09 	stmdaeq	r0, {r0, r3, r8, sl, fp, ip}
 8000124:	08001d09 	stmdaeq	r0, {r0, r3, r8, sl, fp, ip}
 8000128:	08001d09 	stmdaeq	r0, {r0, r3, r8, sl, fp, ip}
 800012c:	08001d09 	stmdaeq	r0, {r0, r3, r8, sl, fp, ip}
 8000130:	08001d09 	stmdaeq	r0, {r0, r3, r8, sl, fp, ip}
 8000134:	08001d09 	stmdaeq	r0, {r0, r3, r8, sl, fp, ip}
 8000138:	08001d09 	stmdaeq	r0, {r0, r3, r8, sl, fp, ip}
 800013c:	08001d09 	stmdaeq	r0, {r0, r3, r8, sl, fp, ip}
 8000140:	08001d09 	stmdaeq	r0, {r0, r3, r8, sl, fp, ip}
 8000144:	08001d09 	stmdaeq	r0, {r0, r3, r8, sl, fp, ip}
 8000148:	08001d09 	stmdaeq	r0, {r0, r3, r8, sl, fp, ip}
 800014c:	08001d09 	stmdaeq	r0, {r0, r3, r8, sl, fp, ip}
 8000150:	08001d09 	stmdaeq	r0, {r0, r3, r8, sl, fp, ip}
 8000154:	08001d09 	stmdaeq	r0, {r0, r3, r8, sl, fp, ip}
 8000158:	08001d09 	stmdaeq	r0, {r0, r3, r8, sl, fp, ip}
 800015c:	08001d09 	stmdaeq	r0, {r0, r3, r8, sl, fp, ip}
 8000160:	08001d09 	stmdaeq	r0, {r0, r3, r8, sl, fp, ip}
 8000164:	08001d09 	stmdaeq	r0, {r0, r3, r8, sl, fp, ip}
 8000168:	08001d09 	stmdaeq	r0, {r0, r3, r8, sl, fp, ip}
 800016c:	08001d09 	stmdaeq	r0, {r0, r3, r8, sl, fp, ip}
 8000170:	08001d09 	stmdaeq	r0, {r0, r3, r8, sl, fp, ip}
 8000174:	08001d09 	stmdaeq	r0, {r0, r3, r8, sl, fp, ip}
 8000178:	08001d09 	stmdaeq	r0, {r0, r3, r8, sl, fp, ip}
 800017c:	00000000 	andeq	r0, r0, r0
 8000180:	08001d09 	stmdaeq	r0, {r0, r3, r8, sl, fp, ip}
 8000184:	08001d09 	stmdaeq	r0, {r0, r3, r8, sl, fp, ip}
 8000188:	08001d09 	stmdaeq	r0, {r0, r3, r8, sl, fp, ip}
 800018c:	08001d09 	stmdaeq	r0, {r0, r3, r8, sl, fp, ip}
 8000190:	08001d09 	stmdaeq	r0, {r0, r3, r8, sl, fp, ip}

Disassembly of section .text:

080001a0 <__do_global_dtors_aux>:
 80001a0:	b510      	push	{r4, lr}
 80001a2:	4c05      	ldr	r4, [pc, #20]	; (80001b8 <__do_global_dtors_aux+0x18>)
 80001a4:	7823      	ldrb	r3, [r4, #0]
 80001a6:	b933      	cbnz	r3, 80001b6 <__do_global_dtors_aux+0x16>
 80001a8:	4b04      	ldr	r3, [pc, #16]	; (80001bc <__do_global_dtors_aux+0x1c>)
 80001aa:	b113      	cbz	r3, 80001b2 <__do_global_dtors_aux+0x12>
 80001ac:	4804      	ldr	r0, [pc, #16]	; (80001c0 <__do_global_dtors_aux+0x20>)
 80001ae:	f3af 8000 	nop.w
 80001b2:	2301      	movs	r3, #1
 80001b4:	7023      	strb	r3, [r4, #0]
 80001b6:	bd10      	pop	{r4, pc}
 80001b8:	2000001c 	andcs	r0, r0, ip, lsl r0
 80001bc:	00000000 	andeq	r0, r0, r0
 80001c0:	08001f6c 	stmdaeq	r0, {r2, r3, r5, r6, r8, r9, sl, fp, ip}

080001c4 <frame_dummy>:
 80001c4:	b508      	push	{r3, lr}
 80001c6:	4b03      	ldr	r3, [pc, #12]	; (80001d4 <frame_dummy+0x10>)
 80001c8:	b11b      	cbz	r3, 80001d2 <frame_dummy+0xe>
 80001ca:	4903      	ldr	r1, [pc, #12]	; (80001d8 <frame_dummy+0x14>)
 80001cc:	4803      	ldr	r0, [pc, #12]	; (80001dc <frame_dummy+0x18>)
 80001ce:	f3af 8000 	nop.w
 80001d2:	bd08      	pop	{r3, pc}
 80001d4:	00000000 	andeq	r0, r0, r0
 80001d8:	20000020 	andcs	r0, r0, r0, lsr #32
 80001dc:	08001f6c 	stmdaeq	r0, {r2, r3, r5, r6, r8, r9, sl, fp, ip}

080001e0 <pvPortMalloc>:
 80001e0:	e92d 41f0 	stmdb	sp!, {r4, r5, r6, r7, r8, lr}
 80001e4:	4604      	mov	r4, r0
 80001e6:	f001 f927 	bl	8001438 <vTaskSuspendAll>
 80001ea:	494b      	ldr	r1, [pc, #300]	; (8000318 <pvPortMalloc+0x138>)
 80001ec:	680f      	ldr	r7, [r1, #0]
 80001ee:	2f00      	cmp	r7, #0
 80001f0:	d047      	beq.n	8000282 <pvPortMalloc+0xa2>
 80001f2:	4b4a      	ldr	r3, [pc, #296]	; (800031c <pvPortMalloc+0x13c>)
 80001f4:	681d      	ldr	r5, [r3, #0]
 80001f6:	ea14 0205 	ands.w	r2, r4, r5
 80001fa:	d13c      	bne.n	8000276 <pvPortMalloc+0x96>
 80001fc:	1e63      	subs	r3, r4, #1
 80001fe:	330a      	adds	r3, #10
 8000200:	d839      	bhi.n	8000276 <pvPortMalloc+0x96>
 8000202:	0763      	lsls	r3, r4, #29
 8000204:	f104 0608 	add.w	r6, r4, #8
 8000208:	d130      	bne.n	800026c <pvPortMalloc+0x8c>
 800020a:	f8df e124 	ldr.w	lr, [pc, #292]	; 8000330 <pvPortMalloc+0x150>
 800020e:	f8de c000 	ldr.w	ip, [lr]
 8000212:	45b4      	cmp	ip, r6
 8000214:	d32f      	bcc.n	8000276 <pvPortMalloc+0x96>
 8000216:	4842      	ldr	r0, [pc, #264]	; (8000320 <pvPortMalloc+0x140>)
 8000218:	6803      	ldr	r3, [r0, #0]
 800021a:	e003      	b.n	8000224 <pvPortMalloc+0x44>
 800021c:	681a      	ldr	r2, [r3, #0]
 800021e:	b122      	cbz	r2, 800022a <pvPortMalloc+0x4a>
 8000220:	4618      	mov	r0, r3
 8000222:	4613      	mov	r3, r2
 8000224:	6859      	ldr	r1, [r3, #4]
 8000226:	42b1      	cmp	r1, r6
 8000228:	d3f8      	bcc.n	800021c <pvPortMalloc+0x3c>
 800022a:	42bb      	cmp	r3, r7
 800022c:	d023      	beq.n	8000276 <pvPortMalloc+0x96>
 800022e:	461c      	mov	r4, r3
 8000230:	eba1 0806 	sub.w	r8, r1, r6
 8000234:	f854 2b08 	ldr.w	r2, [r4], #8
 8000238:	6002      	str	r2, [r0, #0]
 800023a:	f1b8 0f10 	cmp.w	r8, #16
 800023e:	d845      	bhi.n	80002cc <pvPortMalloc+0xec>
 8000240:	4e38      	ldr	r6, [pc, #224]	; (8000324 <pvPortMalloc+0x144>)
 8000242:	6830      	ldr	r0, [r6, #0]
 8000244:	ebac 0201 	sub.w	r2, ip, r1
 8000248:	4282      	cmp	r2, r0
 800024a:	4837      	ldr	r0, [pc, #220]	; (8000328 <pvPortMalloc+0x148>)
 800024c:	f8ce 2000 	str.w	r2, [lr]
 8000250:	bf38      	it	cc
 8000252:	6032      	strcc	r2, [r6, #0]
 8000254:	6802      	ldr	r2, [r0, #0]
 8000256:	4329      	orrs	r1, r5
 8000258:	2500      	movs	r5, #0
 800025a:	3201      	adds	r2, #1
 800025c:	6059      	str	r1, [r3, #4]
 800025e:	601d      	str	r5, [r3, #0]
 8000260:	6002      	str	r2, [r0, #0]
 8000262:	f001 f8f1 	bl	8001448 <xTaskResumeAll>
 8000266:	4620      	mov	r0, r4
 8000268:	e8bd 81f0 	ldmia.w	sp!, {r4, r5, r6, r7, r8, pc}
 800026c:	f026 0307 	bic.w	r3, r6, #7
 8000270:	3308      	adds	r3, #8
 8000272:	42b3      	cmp	r3, r6
 8000274:	d828      	bhi.n	80002c8 <pvPortMalloc+0xe8>
 8000276:	2400      	movs	r4, #0
 8000278:	f001 f8e6 	bl	8001448 <xTaskResumeAll>
 800027c:	4620      	mov	r0, r4
 800027e:	e8bd 81f0 	ldmia.w	sp!, {r4, r5, r6, r7, r8, pc}
 8000282:	4a2a      	ldr	r2, [pc, #168]	; (800032c <pvPortMalloc+0x14c>)
 8000284:	4d25      	ldr	r5, [pc, #148]	; (800031c <pvPortMalloc+0x13c>)
 8000286:	4e27      	ldr	r6, [pc, #156]	; (8000324 <pvPortMalloc+0x144>)
 8000288:	0750      	lsls	r0, r2, #29
 800028a:	bf14      	ite	ne
 800028c:	1dd3      	addne	r3, r2, #7
 800028e:	4613      	moveq	r3, r2
 8000290:	f502 3296 	add.w	r2, r2, #76800	; 0x12c00
 8000294:	f1a2 0208 	sub.w	r2, r2, #8
 8000298:	f022 0707 	bic.w	r7, r2, #7
 800029c:	600f      	str	r7, [r1, #0]
 800029e:	4920      	ldr	r1, [pc, #128]	; (8000320 <pvPortMalloc+0x140>)
 80002a0:	4a23      	ldr	r2, [pc, #140]	; (8000330 <pvPortMalloc+0x150>)
 80002a2:	bf18      	it	ne
 80002a4:	f023 0307 	bicne.w	r3, r3, #7
 80002a8:	600b      	str	r3, [r1, #0]
 80002aa:	4618      	mov	r0, r3
 80002ac:	1afb      	subs	r3, r7, r3
 80002ae:	6013      	str	r3, [r2, #0]
 80002b0:	2200      	movs	r2, #0
 80002b2:	604a      	str	r2, [r1, #4]
 80002b4:	f04f 4100 	mov.w	r1, #2147483648	; 0x80000000
 80002b8:	e9c7 2200 	strd	r2, r2, [r7]
 80002bc:	6029      	str	r1, [r5, #0]
 80002be:	e9c0 7300 	strd	r7, r3, [r0]
 80002c2:	6033      	str	r3, [r6, #0]
 80002c4:	460d      	mov	r5, r1
 80002c6:	e796      	b.n	80001f6 <pvPortMalloc+0x16>
 80002c8:	461e      	mov	r6, r3
 80002ca:	e79e      	b.n	800020a <pvPortMalloc+0x2a>
 80002cc:	1998      	adds	r0, r3, r6
 80002ce:	4a14      	ldr	r2, [pc, #80]	; (8000320 <pvPortMalloc+0x140>)
 80002d0:	f8c0 8004 	str.w	r8, [r0, #4]
 80002d4:	605e      	str	r6, [r3, #4]
 80002d6:	4616      	mov	r6, r2
 80002d8:	6812      	ldr	r2, [r2, #0]
 80002da:	4290      	cmp	r0, r2
 80002dc:	d8fb      	bhi.n	80002d6 <pvPortMalloc+0xf6>
 80002de:	6871      	ldr	r1, [r6, #4]
 80002e0:	eb06 0801 	add.w	r8, r6, r1
 80002e4:	4540      	cmp	r0, r8
 80002e6:	d00a      	beq.n	80002fe <pvPortMalloc+0x11e>
 80002e8:	6841      	ldr	r1, [r0, #4]
 80002ea:	eb00 0801 	add.w	r8, r0, r1
 80002ee:	4542      	cmp	r2, r8
 80002f0:	d00a      	beq.n	8000308 <pvPortMalloc+0x128>
 80002f2:	6002      	str	r2, [r0, #0]
 80002f4:	4286      	cmp	r6, r0
 80002f6:	6859      	ldr	r1, [r3, #4]
 80002f8:	bf18      	it	ne
 80002fa:	6030      	strne	r0, [r6, #0]
 80002fc:	e7a0      	b.n	8000240 <pvPortMalloc+0x60>
 80002fe:	6840      	ldr	r0, [r0, #4]
 8000300:	4401      	add	r1, r0
 8000302:	6071      	str	r1, [r6, #4]
 8000304:	4630      	mov	r0, r6
 8000306:	e7f0      	b.n	80002ea <pvPortMalloc+0x10a>
 8000308:	42ba      	cmp	r2, r7
 800030a:	d0f2      	beq.n	80002f2 <pvPortMalloc+0x112>
 800030c:	e9d2 2700 	ldrd	r2, r7, [r2]
 8000310:	4439      	add	r1, r7
 8000312:	6002      	str	r2, [r0, #0]
 8000314:	6041      	str	r1, [r0, #4]
 8000316:	e7ed      	b.n	80002f4 <pvPortMalloc+0x114>
 8000318:	20000038 	andcs	r0, r0, r8, lsr r0
 800031c:	20012c3c 	andcs	r2, r1, ip, lsr ip
 8000320:	20012c50 	andcs	r2, r1, r0, asr ip
 8000324:	20012c44 	andcs	r2, r1, r4, asr #24
 8000328:	20012c48 	andcs	r2, r1, r8, asr #24
 800032c:	2000003c 	andcs	r0, r0, ip, lsr r0
 8000330:	20012c40 	andcs	r2, r1, r0, asr #24

08000334 <vPortFree>:
 8000334:	b140      	cbz	r0, 8000348 <vPortFree+0x14>
 8000336:	4a21      	ldr	r2, [pc, #132]	; (80003bc <vPortFree+0x88>)
 8000338:	f850 3c04 	ldr.w	r3, [r0, #-4]
 800033c:	6812      	ldr	r2, [r2, #0]
 800033e:	4213      	tst	r3, r2
 8000340:	d002      	beq.n	8000348 <vPortFree+0x14>
 8000342:	f850 1c08 	ldr.w	r1, [r0, #-8]
 8000346:	b101      	cbz	r1, 800034a <vPortFree+0x16>
 8000348:	4770      	bx	lr
 800034a:	b530      	push	{r4, r5, lr}
 800034c:	ea23 0302 	bic.w	r3, r3, r2
 8000350:	b083      	sub	sp, #12
 8000352:	f840 3c04 	str.w	r3, [r0, #-4]
 8000356:	4c1a      	ldr	r4, [pc, #104]	; (80003c0 <vPortFree+0x8c>)
 8000358:	9001      	str	r0, [sp, #4]
 800035a:	f001 f86d 	bl	8001438 <vTaskSuspendAll>
 800035e:	9801      	ldr	r0, [sp, #4]
 8000360:	6822      	ldr	r2, [r4, #0]
 8000362:	f850 1c04 	ldr.w	r1, [r0, #-4]
 8000366:	4b17      	ldr	r3, [pc, #92]	; (80003c4 <vPortFree+0x90>)
 8000368:	440a      	add	r2, r1
 800036a:	6022      	str	r2, [r4, #0]
 800036c:	3808      	subs	r0, #8
 800036e:	461a      	mov	r2, r3
 8000370:	681b      	ldr	r3, [r3, #0]
 8000372:	4298      	cmp	r0, r3
 8000374:	d8fb      	bhi.n	800036e <vPortFree+0x3a>
 8000376:	6854      	ldr	r4, [r2, #4]
 8000378:	1915      	adds	r5, r2, r4
 800037a:	42a8      	cmp	r0, r5
 800037c:	d019      	beq.n	80003b2 <vPortFree+0x7e>
 800037e:	1844      	adds	r4, r0, r1
 8000380:	42a3      	cmp	r3, r4
 8000382:	d00c      	beq.n	800039e <vPortFree+0x6a>
 8000384:	6003      	str	r3, [r0, #0]
 8000386:	4282      	cmp	r2, r0
 8000388:	bf18      	it	ne
 800038a:	6010      	strne	r0, [r2, #0]
 800038c:	4a0e      	ldr	r2, [pc, #56]	; (80003c8 <vPortFree+0x94>)
 800038e:	6813      	ldr	r3, [r2, #0]
 8000390:	3301      	adds	r3, #1
 8000392:	6013      	str	r3, [r2, #0]
 8000394:	b003      	add	sp, #12
 8000396:	e8bd 4030 	ldmia.w	sp!, {r4, r5, lr}
 800039a:	f001 b855 	b.w	8001448 <xTaskResumeAll>
 800039e:	4c0b      	ldr	r4, [pc, #44]	; (80003cc <vPortFree+0x98>)
 80003a0:	6824      	ldr	r4, [r4, #0]
 80003a2:	42a3      	cmp	r3, r4
 80003a4:	d0ee      	beq.n	8000384 <vPortFree+0x50>
 80003a6:	e9d3 3400 	ldrd	r3, r4, [r3]
 80003aa:	4421      	add	r1, r4
 80003ac:	6003      	str	r3, [r0, #0]
 80003ae:	6041      	str	r1, [r0, #4]
 80003b0:	e7e9      	b.n	8000386 <vPortFree+0x52>
 80003b2:	4421      	add	r1, r4
 80003b4:	6051      	str	r1, [r2, #4]
 80003b6:	4610      	mov	r0, r2
 80003b8:	e7e1      	b.n	800037e <vPortFree+0x4a>
 80003ba:	bf00      	nop
 80003bc:	20012c3c 	andcs	r2, r1, ip, lsr ip
 80003c0:	20012c40 	andcs	r2, r1, r0, asr #24
 80003c4:	20012c50 	andcs	r2, r1, r0, asr ip
 80003c8:	20012c4c 	andcs	r2, r1, ip, asr #24
 80003cc:	20000038 	andcs	r0, r0, r8, lsr r0

080003d0 <prvTaskExitError>:
 80003d0:	b082      	sub	sp, #8
 80003d2:	2300      	movs	r3, #0
 80003d4:	9301      	str	r3, [sp, #4]
 80003d6:	f04f 0350 	mov.w	r3, #80	; 0x50
 80003da:	f383 8811 	msr	BASEPRI, r3
 80003de:	f3bf 8f6f 	isb	sy
 80003e2:	f3bf 8f4f 	dsb	sy
 80003e6:	9b01      	ldr	r3, [sp, #4]
 80003e8:	2b00      	cmp	r3, #0
 80003ea:	d0fc      	beq.n	80003e6 <prvTaskExitError+0x16>
 80003ec:	b002      	add	sp, #8
 80003ee:	4770      	bx	lr

080003f0 <prvPortStartFirstTask>:
 80003f0:	4808      	ldr	r0, [pc, #32]	; (8000414 <prvPortStartFirstTask+0x24>)
 80003f2:	6800      	ldr	r0, [r0, #0]
 80003f4:	6800      	ldr	r0, [r0, #0]
 80003f6:	f380 8808 	msr	MSP, r0
 80003fa:	f04f 0000 	mov.w	r0, #0
 80003fe:	f380 8814 	msr	CONTROL, r0
 8000402:	b662      	cpsie	i
 8000404:	b661      	cpsie	f
 8000406:	f3bf 8f4f 	dsb	sy
 800040a:	f3bf 8f6f 	isb	sy
 800040e:	df00      	svc	0
 8000410:	bf00      	nop
 8000412:	ed080000 	stc	0, cr0, [r8, #-0]
 8000416:	 			; <UNDEFINED> instruction: 0xf8dfe000

08000418 <vPortEnableVFP>:
 8000418:	f8df 000c 	ldr.w	r0, [pc, #12]	; 8000428 <vPortEnableVFP+0x10>
 800041c:	6801      	ldr	r1, [r0, #0]
 800041e:	f441 0170 	orr.w	r1, r1, #15728640	; 0xf00000
 8000422:	6001      	str	r1, [r0, #0]
 8000424:	4770      	bx	lr
 8000426:	ed880000 	stc	0, cr0, [r8]
 800042a:	 	ldrtlt	lr, [r0], #-0

0800042c <pxPortInitialiseStack>:
 800042c:	b430      	push	{r4, r5}
 800042e:	f021 0101 	bic.w	r1, r1, #1
 8000432:	4c09      	ldr	r4, [pc, #36]	; (8000458 <pxPortInitialiseStack+0x2c>)
 8000434:	f840 4c0c 	str.w	r4, [r0, #-12]
 8000438:	f04f 7580 	mov.w	r5, #16777216	; 0x1000000
 800043c:	f06f 0302 	mvn.w	r3, #2
 8000440:	f840 5c04 	str.w	r5, [r0, #-4]
 8000444:	f840 1c08 	str.w	r1, [r0, #-8]
 8000448:	f840 2c20 	str.w	r2, [r0, #-32]
 800044c:	f840 3c24 	str.w	r3, [r0, #-36]
 8000450:	bc30      	pop	{r4, r5}
 8000452:	3844      	subs	r0, #68	; 0x44
 8000454:	4770      	bx	lr
 8000456:	bf00      	nop
 8000458:	080003d1 	stmdaeq	r0, {r0, r4, r6, r7, r8, r9}
 800045c:	00000000 	andeq	r0, r0, r0

08000460 <SVC_Handler>:
 8000460:	4b07      	ldr	r3, [pc, #28]	; (8000480 <pxCurrentTCBConst2>)
 8000462:	6819      	ldr	r1, [r3, #0]
 8000464:	6808      	ldr	r0, [r1, #0]
 8000466:	e8b0 4ff0 	ldmia.w	r0!, {r4, r5, r6, r7, r8, r9, sl, fp, lr}
 800046a:	f380 8809 	msr	PSP, r0
 800046e:	f3bf 8f6f 	isb	sy
 8000472:	f04f 0000 	mov.w	r0, #0
 8000476:	f380 8811 	msr	BASEPRI, r0
 800047a:	4770      	bx	lr
 800047c:	f3af 8000 	nop.w

08000480 <pxCurrentTCBConst2>:
 8000480:	20012c58 	andcs	r2, r1, r8, asr ip

08000484 <vPortEnterCritical>:
 8000484:	f04f 0350 	mov.w	r3, #80	; 0x50
 8000488:	f383 8811 	msr	BASEPRI, r3
 800048c:	f3bf 8f6f 	isb	sy
 8000490:	f3bf 8f4f 	dsb	sy
 8000494:	4a02      	ldr	r2, [pc, #8]	; (80004a0 <vPortEnterCritical+0x1c>)
 8000496:	6813      	ldr	r3, [r2, #0]
 8000498:	3301      	adds	r3, #1
 800049a:	6013      	str	r3, [r2, #0]
 800049c:	4770      	bx	lr
 800049e:	bf00      	nop
 80004a0:	20000000 	andcs	r0, r0, r0

080004a4 <vPortExitCritical>:
 80004a4:	4a03      	ldr	r2, [pc, #12]	; (80004b4 <vPortExitCritical+0x10>)
 80004a6:	6813      	ldr	r3, [r2, #0]
 80004a8:	3b01      	subs	r3, #1
 80004aa:	6013      	str	r3, [r2, #0]
 80004ac:	b90b      	cbnz	r3, 80004b2 <vPortExitCritical+0xe>
 80004ae:	f383 8811 	msr	BASEPRI, r3
 80004b2:	4770      	bx	lr
 80004b4:	20000000 	andcs	r0, r0, r0
	...

080004c0 <PendSV_Handler>:
 80004c0:	f3ef 8009 	mrs	r0, PSP
 80004c4:	f3bf 8f6f 	isb	sy
 80004c8:	4b15      	ldr	r3, [pc, #84]	; (8000520 <pxCurrentTCBConst>)
 80004ca:	681a      	ldr	r2, [r3, #0]
 80004cc:	f01e 0f10 	tst.w	lr, #16
 80004d0:	bf08      	it	eq
 80004d2:	ed20 8a10 	vstmdbeq	r0!, {s16-s31}
 80004d6:	e920 4ff0 	stmdb	r0!, {r4, r5, r6, r7, r8, r9, sl, fp, lr}
 80004da:	6010      	str	r0, [r2, #0]
 80004dc:	e92d 0009 	stmdb	sp!, {r0, r3}
 80004e0:	f04f 0050 	mov.w	r0, #80	; 0x50
 80004e4:	f380 8811 	msr	BASEPRI, r0
 80004e8:	f3bf 8f4f 	dsb	sy
 80004ec:	f3bf 8f6f 	isb	sy
 80004f0:	f001 f8ac 	bl	800164c <vTaskSwitchContext>
 80004f4:	f04f 0000 	mov.w	r0, #0
 80004f8:	f380 8811 	msr	BASEPRI, r0
 80004fc:	bc09      	pop	{r0, r3}
 80004fe:	6819      	ldr	r1, [r3, #0]
 8000500:	6808      	ldr	r0, [r1, #0]
 8000502:	e8b0 4ff0 	ldmia.w	r0!, {r4, r5, r6, r7, r8, r9, sl, fp, lr}
 8000506:	f01e 0f10 	tst.w	lr, #16
 800050a:	bf08      	it	eq
 800050c:	ecb0 8a10 	vldmiaeq	r0!, {s16-s31}
 8000510:	f380 8809 	msr	PSP, r0
 8000514:	f3bf 8f6f 	isb	sy
 8000518:	4770      	bx	lr
 800051a:	bf00      	nop
 800051c:	f3af 8000 	nop.w

08000520 <pxCurrentTCBConst>:
 8000520:	20012c58 	andcs	r2, r1, r8, asr ip

08000524 <SysTick_Handler>:
 8000524:	b508      	push	{r3, lr}
 8000526:	f04f 0350 	mov.w	r3, #80	; 0x50
 800052a:	f383 8811 	msr	BASEPRI, r3
 800052e:	f3bf 8f6f 	isb	sy
 8000532:	f3bf 8f4f 	dsb	sy
 8000536:	f001 f879 	bl	800162c <xTaskIncrementTick>
 800053a:	b118      	cbz	r0, 8000544 <SysTick_Handler+0x20>
 800053c:	4b03      	ldr	r3, [pc, #12]	; (800054c <SysTick_Handler+0x28>)
 800053e:	f04f 5280 	mov.w	r2, #268435456	; 0x10000000
 8000542:	601a      	str	r2, [r3, #0]
 8000544:	2300      	movs	r3, #0
 8000546:	f383 8811 	msr	BASEPRI, r3
 800054a:	bd08      	pop	{r3, pc}
 800054c:	e000ed04 	and	lr, r0, r4, lsl #26

08000550 <vPortSetupTimerInterrupt>:
 8000550:	b430      	push	{r4, r5}
 8000552:	4a09      	ldr	r2, [pc, #36]	; (8000578 <vPortSetupTimerInterrupt+0x28>)
 8000554:	4d09      	ldr	r5, [pc, #36]	; (800057c <vPortSetupTimerInterrupt+0x2c>)
 8000556:	4b0a      	ldr	r3, [pc, #40]	; (8000580 <vPortSetupTimerInterrupt+0x30>)
 8000558:	4c0a      	ldr	r4, [pc, #40]	; (8000584 <vPortSetupTimerInterrupt+0x34>)
 800055a:	480b      	ldr	r0, [pc, #44]	; (8000588 <vPortSetupTimerInterrupt+0x38>)
 800055c:	2100      	movs	r1, #0
 800055e:	6011      	str	r1, [r2, #0]
 8000560:	6029      	str	r1, [r5, #0]
 8000562:	681b      	ldr	r3, [r3, #0]
 8000564:	fba4 1303 	umull	r1, r3, r4, r3
 8000568:	099b      	lsrs	r3, r3, #6
 800056a:	3b01      	subs	r3, #1
 800056c:	2107      	movs	r1, #7
 800056e:	6003      	str	r3, [r0, #0]
 8000570:	bc30      	pop	{r4, r5}
 8000572:	6011      	str	r1, [r2, #0]
 8000574:	4770      	bx	lr
 8000576:	bf00      	nop
 8000578:	e000e010 	and	lr, r0, r0, lsl r0
 800057c:	e000e018 	and	lr, r0, r8, lsl r0
 8000580:	20000018 	andcs	r0, r0, r8, lsl r0
 8000584:	10624dd3 	ldrdne	r4, [r2], #-211	; 0xffffff2d	; <UNPREDICTABLE>
 8000588:	e000e014 	and	lr, r0, r4, lsl r0

0800058c <xPortStartScheduler>:
 800058c:	4b14      	ldr	r3, [pc, #80]	; (80005e0 <xPortStartScheduler+0x54>)
 800058e:	681a      	ldr	r2, [r3, #0]
 8000590:	b510      	push	{r4, lr}
 8000592:	f442 0270 	orr.w	r2, r2, #15728640	; 0xf00000
 8000596:	601a      	str	r2, [r3, #0]
 8000598:	681a      	ldr	r2, [r3, #0]
 800059a:	f042 4270 	orr.w	r2, r2, #4026531840	; 0xf0000000
 800059e:	b082      	sub	sp, #8
 80005a0:	601a      	str	r2, [r3, #0]
 80005a2:	f7ff ffd5 	bl	8000550 <vPortSetupTimerInterrupt>
 80005a6:	4b0f      	ldr	r3, [pc, #60]	; (80005e4 <xPortStartScheduler+0x58>)
 80005a8:	2400      	movs	r4, #0
 80005aa:	601c      	str	r4, [r3, #0]
 80005ac:	f7ff ff34 	bl	8000418 <vPortEnableVFP>
 80005b0:	4a0d      	ldr	r2, [pc, #52]	; (80005e8 <xPortStartScheduler+0x5c>)
 80005b2:	6813      	ldr	r3, [r2, #0]
 80005b4:	f043 4340 	orr.w	r3, r3, #3221225472	; 0xc0000000
 80005b8:	6013      	str	r3, [r2, #0]
 80005ba:	f7ff ff19 	bl	80003f0 <prvPortStartFirstTask>
 80005be:	f001 f845 	bl	800164c <vTaskSwitchContext>
 80005c2:	9401      	str	r4, [sp, #4]
 80005c4:	f04f 0350 	mov.w	r3, #80	; 0x50
 80005c8:	f383 8811 	msr	BASEPRI, r3
 80005cc:	f3bf 8f6f 	isb	sy
 80005d0:	f3bf 8f4f 	dsb	sy
 80005d4:	9b01      	ldr	r3, [sp, #4]
 80005d6:	2b00      	cmp	r3, #0
 80005d8:	d0fc      	beq.n	80005d4 <xPortStartScheduler+0x48>
 80005da:	2000      	movs	r0, #0
 80005dc:	b002      	add	sp, #8
 80005de:	bd10      	pop	{r4, pc}
 80005e0:	e000ed20 	and	lr, r0, r0, lsr #26
 80005e4:	20000000 	andcs	r0, r0, r0
 80005e8:	e000ef34 	and	lr, r0, r4, lsr pc

080005ec <vListInitialise>:
 80005ec:	f100 0308 	add.w	r3, r0, #8
 80005f0:	f04f 31ff 	mov.w	r1, #4294967295
 80005f4:	2200      	movs	r2, #0
 80005f6:	e9c0 3303 	strd	r3, r3, [r0, #12]
 80005fa:	6081      	str	r1, [r0, #8]
 80005fc:	6002      	str	r2, [r0, #0]
 80005fe:	6043      	str	r3, [r0, #4]
 8000600:	4770      	bx	lr
 8000602:	bf00      	nop

08000604 <vListInitialiseItem>:
 8000604:	2300      	movs	r3, #0
 8000606:	6103      	str	r3, [r0, #16]
 8000608:	4770      	bx	lr
 800060a:	bf00      	nop

0800060c <vListInsertEnd>:
 800060c:	6843      	ldr	r3, [r0, #4]
 800060e:	6802      	ldr	r2, [r0, #0]
 8000610:	b410      	push	{r4}
 8000612:	689c      	ldr	r4, [r3, #8]
 8000614:	608c      	str	r4, [r1, #8]
 8000616:	689c      	ldr	r4, [r3, #8]
 8000618:	604b      	str	r3, [r1, #4]
 800061a:	3201      	adds	r2, #1
 800061c:	6061      	str	r1, [r4, #4]
 800061e:	6099      	str	r1, [r3, #8]
 8000620:	f85d 4b04 	ldr.w	r4, [sp], #4
 8000624:	6108      	str	r0, [r1, #16]
 8000626:	6002      	str	r2, [r0, #0]
 8000628:	4770      	bx	lr
 800062a:	bf00      	nop

0800062c <vListInsert>:
 800062c:	b430      	push	{r4, r5}
 800062e:	680d      	ldr	r5, [r1, #0]
 8000630:	1c6b      	adds	r3, r5, #1
 8000632:	d010      	beq.n	8000656 <vListInsert+0x2a>
 8000634:	f100 0308 	add.w	r3, r0, #8
 8000638:	461c      	mov	r4, r3
 800063a:	685b      	ldr	r3, [r3, #4]
 800063c:	681a      	ldr	r2, [r3, #0]
 800063e:	42aa      	cmp	r2, r5
 8000640:	d9fa      	bls.n	8000638 <vListInsert+0xc>
 8000642:	6802      	ldr	r2, [r0, #0]
 8000644:	604b      	str	r3, [r1, #4]
 8000646:	3201      	adds	r2, #1
 8000648:	6099      	str	r1, [r3, #8]
 800064a:	608c      	str	r4, [r1, #8]
 800064c:	6061      	str	r1, [r4, #4]
 800064e:	6108      	str	r0, [r1, #16]
 8000650:	bc30      	pop	{r4, r5}
 8000652:	6002      	str	r2, [r0, #0]
 8000654:	4770      	bx	lr
 8000656:	6904      	ldr	r4, [r0, #16]
 8000658:	6863      	ldr	r3, [r4, #4]
 800065a:	e7f2      	b.n	8000642 <vListInsert+0x16>

0800065c <uxListRemove>:
 800065c:	6903      	ldr	r3, [r0, #16]
 800065e:	b410      	push	{r4}
 8000660:	e9d0 1201 	ldrd	r1, r2, [r0, #4]
 8000664:	685c      	ldr	r4, [r3, #4]
 8000666:	608a      	str	r2, [r1, #8]
 8000668:	4284      	cmp	r4, r0
 800066a:	6051      	str	r1, [r2, #4]
 800066c:	bf08      	it	eq
 800066e:	605a      	streq	r2, [r3, #4]
 8000670:	681a      	ldr	r2, [r3, #0]
 8000672:	f85d 4b04 	ldr.w	r4, [sp], #4
 8000676:	2100      	movs	r1, #0
 8000678:	3a01      	subs	r2, #1
 800067a:	6101      	str	r1, [r0, #16]
 800067c:	601a      	str	r2, [r3, #0]
 800067e:	6818      	ldr	r0, [r3, #0]
 8000680:	4770      	bx	lr
 8000682:	bf00      	nop

08000684 <xQueueGenericCreate>:
 8000684:	b5f8      	push	{r3, r4, r5, r6, r7, lr}
 8000686:	4606      	mov	r6, r0
 8000688:	fb01 f000 	mul.w	r0, r1, r0
 800068c:	3050      	adds	r0, #80	; 0x50
 800068e:	460d      	mov	r5, r1
 8000690:	4617      	mov	r7, r2
 8000692:	f7ff fda5 	bl	80001e0 <pvPortMalloc>
 8000696:	4604      	mov	r4, r0
 8000698:	b328      	cbz	r0, 80006e6 <xQueueGenericCreate+0x62>
 800069a:	b335      	cbz	r5, 80006ea <xQueueGenericCreate+0x66>
 800069c:	f100 0350 	add.w	r3, r0, #80	; 0x50
 80006a0:	6023      	str	r3, [r4, #0]
 80006a2:	e9c4 650f 	strd	r6, r5, [r4, #60]	; 0x3c
 80006a6:	f7ff feed 	bl	8000484 <vPortEnterCritical>
 80006aa:	e9d4 230f 	ldrd	r2, r3, [r4, #60]	; 0x3c
 80006ae:	6821      	ldr	r1, [r4, #0]
 80006b0:	6061      	str	r1, [r4, #4]
 80006b2:	fb02 f203 	mul.w	r2, r2, r3
 80006b6:	1ad3      	subs	r3, r2, r3
 80006b8:	440b      	add	r3, r1
 80006ba:	2000      	movs	r0, #0
 80006bc:	4411      	add	r1, r2
 80006be:	22ff      	movs	r2, #255	; 0xff
 80006c0:	63a0      	str	r0, [r4, #56]	; 0x38
 80006c2:	e9c4 1302 	strd	r1, r3, [r4, #8]
 80006c6:	f884 2044 	strb.w	r2, [r4, #68]	; 0x44
 80006ca:	f104 0010 	add.w	r0, r4, #16
 80006ce:	f884 2045 	strb.w	r2, [r4, #69]	; 0x45
 80006d2:	f7ff ff8b 	bl	80005ec <vListInitialise>
 80006d6:	f104 0024 	add.w	r0, r4, #36	; 0x24
 80006da:	f7ff ff87 	bl	80005ec <vListInitialise>
 80006de:	f7ff fee1 	bl	80004a4 <vPortExitCritical>
 80006e2:	f884 704c 	strb.w	r7, [r4, #76]	; 0x4c
 80006e6:	4620      	mov	r0, r4
 80006e8:	bdf8      	pop	{r3, r4, r5, r6, r7, pc}
 80006ea:	4603      	mov	r3, r0
 80006ec:	e7d8      	b.n	80006a0 <xQueueGenericCreate+0x1c>
 80006ee:	bf00      	nop

080006f0 <xQueueGenericSend>:
 80006f0:	e92d 47f0 	stmdb	sp!, {r4, r5, r6, r7, r8, r9, sl, lr}
 80006f4:	4604      	mov	r4, r0
 80006f6:	b084      	sub	sp, #16
 80006f8:	461f      	mov	r7, r3
 80006fa:	9201      	str	r2, [sp, #4]
 80006fc:	4688      	mov	r8, r1
 80006fe:	f100 0624 	add.w	r6, r0, #36	; 0x24
 8000702:	f7ff febf 	bl	8000484 <vPortEnterCritical>
 8000706:	6ba2      	ldr	r2, [r4, #56]	; 0x38
 8000708:	6be3      	ldr	r3, [r4, #60]	; 0x3c
 800070a:	f8df 9338 	ldr.w	r9, [pc, #824]	; 8000a44 <xQueueGenericSend+0x354>
 800070e:	429a      	cmp	r2, r3
 8000710:	f04f 0a00 	mov.w	sl, #0
 8000714:	d37c      	bcc.n	8000810 <xQueueGenericSend+0x120>
 8000716:	2f02      	cmp	r7, #2
 8000718:	f000 80e7 	beq.w	80008ea <xQueueGenericSend+0x1fa>
 800071c:	9d01      	ldr	r5, [sp, #4]
 800071e:	2d00      	cmp	r5, #0
 8000720:	f000 8110 	beq.w	8000944 <xQueueGenericSend+0x254>
 8000724:	ad02      	add	r5, sp, #8
 8000726:	f1ba 0f00 	cmp.w	sl, #0
 800072a:	f000 80da 	beq.w	80008e2 <xQueueGenericSend+0x1f2>
 800072e:	f7ff feb9 	bl	80004a4 <vPortExitCritical>
 8000732:	f000 fe81 	bl	8001438 <vTaskSuspendAll>
 8000736:	f7ff fea5 	bl	8000484 <vPortEnterCritical>
 800073a:	f894 3044 	ldrb.w	r3, [r4, #68]	; 0x44
 800073e:	2bff      	cmp	r3, #255	; 0xff
 8000740:	bf04      	itt	eq
 8000742:	2300      	moveq	r3, #0
 8000744:	f884 3044 	strbeq.w	r3, [r4, #68]	; 0x44
 8000748:	f894 3045 	ldrb.w	r3, [r4, #69]	; 0x45
 800074c:	2bff      	cmp	r3, #255	; 0xff
 800074e:	bf04      	itt	eq
 8000750:	2300      	moveq	r3, #0
 8000752:	f884 3045 	strbeq.w	r3, [r4, #69]	; 0x45
 8000756:	f7ff fea5 	bl	80004a4 <vPortExitCritical>
 800075a:	4628      	mov	r0, r5
 800075c:	a901      	add	r1, sp, #4
 800075e:	f001 f887 	bl	8001870 <xTaskCheckForTimeOut>
 8000762:	2800      	cmp	r0, #0
 8000764:	f040 80f4 	bne.w	8000950 <xQueueGenericSend+0x260>
 8000768:	f7ff fe8c 	bl	8000484 <vPortEnterCritical>
 800076c:	6ba2      	ldr	r2, [r4, #56]	; 0x38
 800076e:	6be3      	ldr	r3, [r4, #60]	; 0x3c
 8000770:	429a      	cmp	r2, r3
 8000772:	d061      	beq.n	8000838 <xQueueGenericSend+0x148>
 8000774:	f7ff fe96 	bl	80004a4 <vPortExitCritical>
 8000778:	f7ff fe84 	bl	8000484 <vPortEnterCritical>
 800077c:	f894 5045 	ldrb.w	r5, [r4, #69]	; 0x45
 8000780:	b26d      	sxtb	r5, r5
 8000782:	2d00      	cmp	r5, #0
 8000784:	dc05      	bgt.n	8000792 <xQueueGenericSend+0xa2>
 8000786:	e012      	b.n	80007ae <xQueueGenericSend+0xbe>
 8000788:	1e6b      	subs	r3, r5, #1
 800078a:	f013 0fff 	tst.w	r3, #255	; 0xff
 800078e:	b25d      	sxtb	r5, r3
 8000790:	d00d      	beq.n	80007ae <xQueueGenericSend+0xbe>
 8000792:	6a63      	ldr	r3, [r4, #36]	; 0x24
 8000794:	4630      	mov	r0, r6
 8000796:	b153      	cbz	r3, 80007ae <xQueueGenericSend+0xbe>
 8000798:	f001 f820 	bl	80017dc <xTaskRemoveFromEventList>
 800079c:	2800      	cmp	r0, #0
 800079e:	d0f3      	beq.n	8000788 <xQueueGenericSend+0x98>
 80007a0:	f001 f898 	bl	80018d4 <vTaskMissedYield>
 80007a4:	1e6b      	subs	r3, r5, #1
 80007a6:	f013 0fff 	tst.w	r3, #255	; 0xff
 80007aa:	b25d      	sxtb	r5, r3
 80007ac:	d1f1      	bne.n	8000792 <xQueueGenericSend+0xa2>
 80007ae:	23ff      	movs	r3, #255	; 0xff
 80007b0:	f884 3045 	strb.w	r3, [r4, #69]	; 0x45
 80007b4:	f7ff fe76 	bl	80004a4 <vPortExitCritical>
 80007b8:	f7ff fe64 	bl	8000484 <vPortEnterCritical>
 80007bc:	f894 5044 	ldrb.w	r5, [r4, #68]	; 0x44
 80007c0:	b26d      	sxtb	r5, r5
 80007c2:	2d00      	cmp	r5, #0
 80007c4:	dd15      	ble.n	80007f2 <xQueueGenericSend+0x102>
 80007c6:	f104 0a10 	add.w	sl, r4, #16
 80007ca:	e004      	b.n	80007d6 <xQueueGenericSend+0xe6>
 80007cc:	1e6b      	subs	r3, r5, #1
 80007ce:	f013 0fff 	tst.w	r3, #255	; 0xff
 80007d2:	b25d      	sxtb	r5, r3
 80007d4:	d00d      	beq.n	80007f2 <xQueueGenericSend+0x102>
 80007d6:	6923      	ldr	r3, [r4, #16]
 80007d8:	4650      	mov	r0, sl
 80007da:	b153      	cbz	r3, 80007f2 <xQueueGenericSend+0x102>
 80007dc:	f000 fffe 	bl	80017dc <xTaskRemoveFromEventList>
 80007e0:	2800      	cmp	r0, #0
 80007e2:	d0f3      	beq.n	80007cc <xQueueGenericSend+0xdc>
 80007e4:	f001 f876 	bl	80018d4 <vTaskMissedYield>
 80007e8:	1e6b      	subs	r3, r5, #1
 80007ea:	f013 0fff 	tst.w	r3, #255	; 0xff
 80007ee:	b25d      	sxtb	r5, r3
 80007f0:	d1f1      	bne.n	80007d6 <xQueueGenericSend+0xe6>
 80007f2:	23ff      	movs	r3, #255	; 0xff
 80007f4:	f884 3044 	strb.w	r3, [r4, #68]	; 0x44
 80007f8:	f7ff fe54 	bl	80004a4 <vPortExitCritical>
 80007fc:	f000 fe24 	bl	8001448 <xTaskResumeAll>
 8000800:	f7ff fe40 	bl	8000484 <vPortEnterCritical>
 8000804:	6ba2      	ldr	r2, [r4, #56]	; 0x38
 8000806:	6be3      	ldr	r3, [r4, #60]	; 0x3c
 8000808:	429a      	cmp	r2, r3
 800080a:	f04f 0a01 	mov.w	sl, #1
 800080e:	d282      	bcs.n	8000716 <xQueueGenericSend+0x26>
 8000810:	6c22      	ldr	r2, [r4, #64]	; 0x40
 8000812:	6ba5      	ldr	r5, [r4, #56]	; 0x38
 8000814:	2a00      	cmp	r2, #0
 8000816:	f040 80e5 	bne.w	80009e4 <xQueueGenericSend+0x2f4>
 800081a:	6826      	ldr	r6, [r4, #0]
 800081c:	2e00      	cmp	r6, #0
 800081e:	f000 80f7 	beq.w	8000a10 <xQueueGenericSend+0x320>
 8000822:	3501      	adds	r5, #1
 8000824:	63a5      	str	r5, [r4, #56]	; 0x38
 8000826:	6a63      	ldr	r3, [r4, #36]	; 0x24
 8000828:	2b00      	cmp	r3, #0
 800082a:	d17b      	bne.n	8000924 <xQueueGenericSend+0x234>
 800082c:	f7ff fe3a 	bl	80004a4 <vPortExitCritical>
 8000830:	2001      	movs	r0, #1
 8000832:	b004      	add	sp, #16
 8000834:	e8bd 87f0 	ldmia.w	sp!, {r4, r5, r6, r7, r8, r9, sl, pc}
 8000838:	f104 0a10 	add.w	sl, r4, #16
 800083c:	f7ff fe32 	bl	80004a4 <vPortExitCritical>
 8000840:	9901      	ldr	r1, [sp, #4]
 8000842:	4650      	mov	r0, sl
 8000844:	f000 ff30 	bl	80016a8 <vTaskPlaceOnEventList>
 8000848:	f7ff fe1c 	bl	8000484 <vPortEnterCritical>
 800084c:	f894 5045 	ldrb.w	r5, [r4, #69]	; 0x45
 8000850:	b26d      	sxtb	r5, r5
 8000852:	2d00      	cmp	r5, #0
 8000854:	dc05      	bgt.n	8000862 <xQueueGenericSend+0x172>
 8000856:	e012      	b.n	800087e <xQueueGenericSend+0x18e>
 8000858:	1e6b      	subs	r3, r5, #1
 800085a:	f013 0fff 	tst.w	r3, #255	; 0xff
 800085e:	b25d      	sxtb	r5, r3
 8000860:	d00d      	beq.n	800087e <xQueueGenericSend+0x18e>
 8000862:	6a63      	ldr	r3, [r4, #36]	; 0x24
 8000864:	4630      	mov	r0, r6
 8000866:	b153      	cbz	r3, 800087e <xQueueGenericSend+0x18e>
 8000868:	f000 ffb8 	bl	80017dc <xTaskRemoveFromEventList>
 800086c:	2800      	cmp	r0, #0
 800086e:	d0f3      	beq.n	8000858 <xQueueGenericSend+0x168>
 8000870:	f001 f830 	bl	80018d4 <vTaskMissedYield>
 8000874:	1e6b      	subs	r3, r5, #1
 8000876:	f013 0fff 	tst.w	r3, #255	; 0xff
 800087a:	b25d      	sxtb	r5, r3
 800087c:	d1f1      	bne.n	8000862 <xQueueGenericSend+0x172>
 800087e:	23ff      	movs	r3, #255	; 0xff
 8000880:	f884 3045 	strb.w	r3, [r4, #69]	; 0x45
 8000884:	f7ff fe0e 	bl	80004a4 <vPortExitCritical>
 8000888:	f7ff fdfc 	bl	8000484 <vPortEnterCritical>
 800088c:	f894 5044 	ldrb.w	r5, [r4, #68]	; 0x44
 8000890:	b26d      	sxtb	r5, r5
 8000892:	2d00      	cmp	r5, #0
 8000894:	dc05      	bgt.n	80008a2 <xQueueGenericSend+0x1b2>
 8000896:	e012      	b.n	80008be <xQueueGenericSend+0x1ce>
 8000898:	1e6b      	subs	r3, r5, #1
 800089a:	f013 0fff 	tst.w	r3, #255	; 0xff
 800089e:	b25d      	sxtb	r5, r3
 80008a0:	d00d      	beq.n	80008be <xQueueGenericSend+0x1ce>
 80008a2:	6923      	ldr	r3, [r4, #16]
 80008a4:	4650      	mov	r0, sl
 80008a6:	b153      	cbz	r3, 80008be <xQueueGenericSend+0x1ce>
 80008a8:	f000 ff98 	bl	80017dc <xTaskRemoveFromEventList>
 80008ac:	2800      	cmp	r0, #0
 80008ae:	d0f3      	beq.n	8000898 <xQueueGenericSend+0x1a8>
 80008b0:	f001 f810 	bl	80018d4 <vTaskMissedYield>
 80008b4:	1e6b      	subs	r3, r5, #1
 80008b6:	f013 0fff 	tst.w	r3, #255	; 0xff
 80008ba:	b25d      	sxtb	r5, r3
 80008bc:	d1f1      	bne.n	80008a2 <xQueueGenericSend+0x1b2>
 80008be:	23ff      	movs	r3, #255	; 0xff
 80008c0:	f884 3044 	strb.w	r3, [r4, #68]	; 0x44
 80008c4:	f7ff fdee 	bl	80004a4 <vPortExitCritical>
 80008c8:	f000 fdbe 	bl	8001448 <xTaskResumeAll>
 80008cc:	2800      	cmp	r0, #0
 80008ce:	d197      	bne.n	8000800 <xQueueGenericSend+0x110>
 80008d0:	f04f 5380 	mov.w	r3, #268435456	; 0x10000000
 80008d4:	f8c9 3000 	str.w	r3, [r9]
 80008d8:	f3bf 8f4f 	dsb	sy
 80008dc:	f3bf 8f6f 	isb	sy
 80008e0:	e78e      	b.n	8000800 <xQueueGenericSend+0x110>
 80008e2:	4628      	mov	r0, r5
 80008e4:	f000 ffb8 	bl	8001858 <vTaskInternalSetTimeOutState>
 80008e8:	e721      	b.n	800072e <xQueueGenericSend+0x3e>
 80008ea:	6c22      	ldr	r2, [r4, #64]	; 0x40
 80008ec:	6ba5      	ldr	r5, [r4, #56]	; 0x38
 80008ee:	2a00      	cmp	r2, #0
 80008f0:	d093      	beq.n	800081a <xQueueGenericSend+0x12a>
 80008f2:	4641      	mov	r1, r8
 80008f4:	68e0      	ldr	r0, [r4, #12]
 80008f6:	f001 fb23 	bl	8001f40 <memcpy>
 80008fa:	6c22      	ldr	r2, [r4, #64]	; 0x40
 80008fc:	68e3      	ldr	r3, [r4, #12]
 80008fe:	6821      	ldr	r1, [r4, #0]
 8000900:	1a9b      	subs	r3, r3, r2
 8000902:	428b      	cmp	r3, r1
 8000904:	60e3      	str	r3, [r4, #12]
 8000906:	f1c2 0200 	rsb	r2, r2, #0
 800090a:	d204      	bcs.n	8000916 <xQueueGenericSend+0x226>
 800090c:	68a3      	ldr	r3, [r4, #8]
 800090e:	441a      	add	r2, r3
 8000910:	60e2      	str	r2, [r4, #12]
 8000912:	2f02      	cmp	r7, #2
 8000914:	d185      	bne.n	8000822 <xQueueGenericSend+0x132>
 8000916:	2d00      	cmp	r5, #0
 8000918:	d184      	bne.n	8000824 <xQueueGenericSend+0x134>
 800091a:	2301      	movs	r3, #1
 800091c:	63a3      	str	r3, [r4, #56]	; 0x38
 800091e:	6a63      	ldr	r3, [r4, #36]	; 0x24
 8000920:	2b00      	cmp	r3, #0
 8000922:	d083      	beq.n	800082c <xQueueGenericSend+0x13c>
 8000924:	f104 0024 	add.w	r0, r4, #36	; 0x24
 8000928:	f000 ff58 	bl	80017dc <xTaskRemoveFromEventList>
 800092c:	2800      	cmp	r0, #0
 800092e:	f43f af7d 	beq.w	800082c <xQueueGenericSend+0x13c>
 8000932:	4b44      	ldr	r3, [pc, #272]	; (8000a44 <xQueueGenericSend+0x354>)
 8000934:	f04f 5280 	mov.w	r2, #268435456	; 0x10000000
 8000938:	601a      	str	r2, [r3, #0]
 800093a:	f3bf 8f4f 	dsb	sy
 800093e:	f3bf 8f6f 	isb	sy
 8000942:	e773      	b.n	800082c <xQueueGenericSend+0x13c>
 8000944:	f7ff fdae 	bl	80004a4 <vPortExitCritical>
 8000948:	4628      	mov	r0, r5
 800094a:	b004      	add	sp, #16
 800094c:	e8bd 87f0 	ldmia.w	sp!, {r4, r5, r6, r7, r8, r9, sl, pc}
 8000950:	f7ff fd98 	bl	8000484 <vPortEnterCritical>
 8000954:	f894 5045 	ldrb.w	r5, [r4, #69]	; 0x45
 8000958:	b26d      	sxtb	r5, r5
 800095a:	2d00      	cmp	r5, #0
 800095c:	dd15      	ble.n	800098a <xQueueGenericSend+0x29a>
 800095e:	f104 0624 	add.w	r6, r4, #36	; 0x24
 8000962:	e004      	b.n	800096e <xQueueGenericSend+0x27e>
 8000964:	1e6b      	subs	r3, r5, #1
 8000966:	f013 0fff 	tst.w	r3, #255	; 0xff
 800096a:	b25d      	sxtb	r5, r3
 800096c:	d00d      	beq.n	800098a <xQueueGenericSend+0x29a>
 800096e:	6a63      	ldr	r3, [r4, #36]	; 0x24
 8000970:	4630      	mov	r0, r6
 8000972:	b153      	cbz	r3, 800098a <xQueueGenericSend+0x29a>
 8000974:	f000 ff32 	bl	80017dc <xTaskRemoveFromEventList>
 8000978:	2800      	cmp	r0, #0
 800097a:	d0f3      	beq.n	8000964 <xQueueGenericSend+0x274>
 800097c:	f000 ffaa 	bl	80018d4 <vTaskMissedYield>
 8000980:	1e6b      	subs	r3, r5, #1
 8000982:	f013 0fff 	tst.w	r3, #255	; 0xff
 8000986:	b25d      	sxtb	r5, r3
 8000988:	d1f1      	bne.n	800096e <xQueueGenericSend+0x27e>
 800098a:	23ff      	movs	r3, #255	; 0xff
 800098c:	f884 3045 	strb.w	r3, [r4, #69]	; 0x45
 8000990:	f7ff fd88 	bl	80004a4 <vPortExitCritical>
 8000994:	f7ff fd76 	bl	8000484 <vPortEnterCritical>
 8000998:	f894 5044 	ldrb.w	r5, [r4, #68]	; 0x44
 800099c:	b26d      	sxtb	r5, r5
 800099e:	2d00      	cmp	r5, #0
 80009a0:	dd15      	ble.n	80009ce <xQueueGenericSend+0x2de>
 80009a2:	f104 0610 	add.w	r6, r4, #16
 80009a6:	e004      	b.n	80009b2 <xQueueGenericSend+0x2c2>
 80009a8:	1e6b      	subs	r3, r5, #1
 80009aa:	f013 0fff 	tst.w	r3, #255	; 0xff
 80009ae:	b25d      	sxtb	r5, r3
 80009b0:	d00d      	beq.n	80009ce <xQueueGenericSend+0x2de>
 80009b2:	6923      	ldr	r3, [r4, #16]
 80009b4:	4630      	mov	r0, r6
 80009b6:	b153      	cbz	r3, 80009ce <xQueueGenericSend+0x2de>
 80009b8:	f000 ff10 	bl	80017dc <xTaskRemoveFromEventList>
 80009bc:	2800      	cmp	r0, #0
 80009be:	d0f3      	beq.n	80009a8 <xQueueGenericSend+0x2b8>
 80009c0:	f000 ff88 	bl	80018d4 <vTaskMissedYield>
 80009c4:	1e6b      	subs	r3, r5, #1
 80009c6:	f013 0fff 	tst.w	r3, #255	; 0xff
 80009ca:	b25d      	sxtb	r5, r3
 80009cc:	d1f1      	bne.n	80009b2 <xQueueGenericSend+0x2c2>
 80009ce:	23ff      	movs	r3, #255	; 0xff
 80009d0:	f884 3044 	strb.w	r3, [r4, #68]	; 0x44
 80009d4:	f7ff fd66 	bl	80004a4 <vPortExitCritical>
 80009d8:	f000 fd36 	bl	8001448 <xTaskResumeAll>
 80009dc:	2000      	movs	r0, #0
 80009de:	b004      	add	sp, #16
 80009e0:	e8bd 87f0 	ldmia.w	sp!, {r4, r5, r6, r7, r8, r9, sl, pc}
 80009e4:	4641      	mov	r1, r8
 80009e6:	b9ff      	cbnz	r7, 8000a28 <xQueueGenericSend+0x338>
 80009e8:	6860      	ldr	r0, [r4, #4]
 80009ea:	f001 faa9 	bl	8001f40 <memcpy>
 80009ee:	6863      	ldr	r3, [r4, #4]
 80009f0:	6c21      	ldr	r1, [r4, #64]	; 0x40
 80009f2:	68a2      	ldr	r2, [r4, #8]
 80009f4:	440b      	add	r3, r1
 80009f6:	4293      	cmp	r3, r2
 80009f8:	6063      	str	r3, [r4, #4]
 80009fa:	f4ff af12 	bcc.w	8000822 <xQueueGenericSend+0x132>
 80009fe:	3501      	adds	r5, #1
 8000a00:	63a5      	str	r5, [r4, #56]	; 0x38
 8000a02:	6a63      	ldr	r3, [r4, #36]	; 0x24
 8000a04:	6822      	ldr	r2, [r4, #0]
 8000a06:	6062      	str	r2, [r4, #4]
 8000a08:	2b00      	cmp	r3, #0
 8000a0a:	f43f af0f 	beq.w	800082c <xQueueGenericSend+0x13c>
 8000a0e:	e789      	b.n	8000924 <xQueueGenericSend+0x234>
 8000a10:	68a0      	ldr	r0, [r4, #8]
 8000a12:	3501      	adds	r5, #1
 8000a14:	f000 ff74 	bl	8001900 <xTaskPriorityDisinherit>
 8000a18:	63a5      	str	r5, [r4, #56]	; 0x38
 8000a1a:	6a63      	ldr	r3, [r4, #36]	; 0x24
 8000a1c:	60a6      	str	r6, [r4, #8]
 8000a1e:	2b00      	cmp	r3, #0
 8000a20:	d180      	bne.n	8000924 <xQueueGenericSend+0x234>
 8000a22:	2800      	cmp	r0, #0
 8000a24:	d185      	bne.n	8000932 <xQueueGenericSend+0x242>
 8000a26:	e701      	b.n	800082c <xQueueGenericSend+0x13c>
 8000a28:	68e0      	ldr	r0, [r4, #12]
 8000a2a:	f001 fa89 	bl	8001f40 <memcpy>
 8000a2e:	6c22      	ldr	r2, [r4, #64]	; 0x40
 8000a30:	68e3      	ldr	r3, [r4, #12]
 8000a32:	6821      	ldr	r1, [r4, #0]
 8000a34:	1a9b      	subs	r3, r3, r2
 8000a36:	428b      	cmp	r3, r1
 8000a38:	60e3      	str	r3, [r4, #12]
 8000a3a:	f1c2 0200 	rsb	r2, r2, #0
 8000a3e:	f4bf af68 	bcs.w	8000912 <xQueueGenericSend+0x222>
 8000a42:	e763      	b.n	800090c <xQueueGenericSend+0x21c>
 8000a44:	e000ed04 	and	lr, r0, r4, lsl #26

08000a48 <xQueueReceive>:
 8000a48:	e92d 43f0 	stmdb	sp!, {r4, r5, r6, r7, r8, r9, lr}
 8000a4c:	4604      	mov	r4, r0
 8000a4e:	b085      	sub	sp, #20
 8000a50:	460f      	mov	r7, r1
 8000a52:	9201      	str	r2, [sp, #4]
 8000a54:	f7ff fd16 	bl	8000484 <vPortEnterCritical>
 8000a58:	6ba5      	ldr	r5, [r4, #56]	; 0x38
 8000a5a:	2d00      	cmp	r5, #0
 8000a5c:	f040 8126 	bne.w	8000cac <xQueueReceive+0x264>
 8000a60:	9b01      	ldr	r3, [sp, #4]
 8000a62:	2b00      	cmp	r3, #0
 8000a64:	f000 80d1 	beq.w	8000c0a <xQueueReceive+0x1c2>
 8000a68:	a802      	add	r0, sp, #8
 8000a6a:	f000 fef5 	bl	8001858 <vTaskInternalSetTimeOutState>
 8000a6e:	f8df 8288 	ldr.w	r8, [pc, #648]	; 8000cf8 <xQueueReceive+0x2b0>
 8000a72:	f104 0624 	add.w	r6, r4, #36	; 0x24
 8000a76:	f7ff fd15 	bl	80004a4 <vPortExitCritical>
 8000a7a:	f000 fcdd 	bl	8001438 <vTaskSuspendAll>
 8000a7e:	f7ff fd01 	bl	8000484 <vPortEnterCritical>
 8000a82:	f894 3044 	ldrb.w	r3, [r4, #68]	; 0x44
 8000a86:	2bff      	cmp	r3, #255	; 0xff
 8000a88:	bf04      	itt	eq
 8000a8a:	2300      	moveq	r3, #0
 8000a8c:	f884 3044 	strbeq.w	r3, [r4, #68]	; 0x44
 8000a90:	f894 3045 	ldrb.w	r3, [r4, #69]	; 0x45
 8000a94:	2bff      	cmp	r3, #255	; 0xff
 8000a96:	bf04      	itt	eq
 8000a98:	2300      	moveq	r3, #0
 8000a9a:	f884 3045 	strbeq.w	r3, [r4, #69]	; 0x45
 8000a9e:	f7ff fd01 	bl	80004a4 <vPortExitCritical>
 8000aa2:	a901      	add	r1, sp, #4
 8000aa4:	a802      	add	r0, sp, #8
 8000aa6:	f000 fee3 	bl	8001870 <xTaskCheckForTimeOut>
 8000aaa:	2800      	cmp	r0, #0
 8000aac:	d15a      	bne.n	8000b64 <xQueueReceive+0x11c>
 8000aae:	f7ff fce9 	bl	8000484 <vPortEnterCritical>
 8000ab2:	6ba3      	ldr	r3, [r4, #56]	; 0x38
 8000ab4:	2b00      	cmp	r3, #0
 8000ab6:	f040 80ae 	bne.w	8000c16 <xQueueReceive+0x1ce>
 8000aba:	f7ff fcf3 	bl	80004a4 <vPortExitCritical>
 8000abe:	9901      	ldr	r1, [sp, #4]
 8000ac0:	4630      	mov	r0, r6
 8000ac2:	f000 fdf1 	bl	80016a8 <vTaskPlaceOnEventList>
 8000ac6:	f7ff fcdd 	bl	8000484 <vPortEnterCritical>
 8000aca:	f894 5045 	ldrb.w	r5, [r4, #69]	; 0x45
 8000ace:	b26d      	sxtb	r5, r5
 8000ad0:	2d00      	cmp	r5, #0
 8000ad2:	dc05      	bgt.n	8000ae0 <xQueueReceive+0x98>
 8000ad4:	e012      	b.n	8000afc <xQueueReceive+0xb4>
 8000ad6:	1e6b      	subs	r3, r5, #1
 8000ad8:	f013 0fff 	tst.w	r3, #255	; 0xff
 8000adc:	b25d      	sxtb	r5, r3
 8000ade:	d00d      	beq.n	8000afc <xQueueReceive+0xb4>
 8000ae0:	6a63      	ldr	r3, [r4, #36]	; 0x24
 8000ae2:	4630      	mov	r0, r6
 8000ae4:	b153      	cbz	r3, 8000afc <xQueueReceive+0xb4>
 8000ae6:	f000 fe79 	bl	80017dc <xTaskRemoveFromEventList>
 8000aea:	2800      	cmp	r0, #0
 8000aec:	d0f3      	beq.n	8000ad6 <xQueueReceive+0x8e>
 8000aee:	f000 fef1 	bl	80018d4 <vTaskMissedYield>
 8000af2:	1e6b      	subs	r3, r5, #1
 8000af4:	f013 0fff 	tst.w	r3, #255	; 0xff
 8000af8:	b25d      	sxtb	r5, r3
 8000afa:	d1f1      	bne.n	8000ae0 <xQueueReceive+0x98>
 8000afc:	23ff      	movs	r3, #255	; 0xff
 8000afe:	f884 3045 	strb.w	r3, [r4, #69]	; 0x45
 8000b02:	f7ff fccf 	bl	80004a4 <vPortExitCritical>
 8000b06:	f7ff fcbd 	bl	8000484 <vPortEnterCritical>
 8000b0a:	f894 5044 	ldrb.w	r5, [r4, #68]	; 0x44
 8000b0e:	b26d      	sxtb	r5, r5
 8000b10:	2d00      	cmp	r5, #0
 8000b12:	dd15      	ble.n	8000b40 <xQueueReceive+0xf8>
 8000b14:	f104 0910 	add.w	r9, r4, #16
 8000b18:	e004      	b.n	8000b24 <xQueueReceive+0xdc>
 8000b1a:	1e6b      	subs	r3, r5, #1
 8000b1c:	f013 0fff 	tst.w	r3, #255	; 0xff
 8000b20:	b25d      	sxtb	r5, r3
 8000b22:	d00d      	beq.n	8000b40 <xQueueReceive+0xf8>
 8000b24:	6923      	ldr	r3, [r4, #16]
 8000b26:	4648      	mov	r0, r9
 8000b28:	b153      	cbz	r3, 8000b40 <xQueueReceive+0xf8>
 8000b2a:	f000 fe57 	bl	80017dc <xTaskRemoveFromEventList>
 8000b2e:	2800      	cmp	r0, #0
 8000b30:	d0f3      	beq.n	8000b1a <xQueueReceive+0xd2>
 8000b32:	f000 fecf 	bl	80018d4 <vTaskMissedYield>
 8000b36:	1e6b      	subs	r3, r5, #1
 8000b38:	f013 0fff 	tst.w	r3, #255	; 0xff
 8000b3c:	b25d      	sxtb	r5, r3
 8000b3e:	d1f1      	bne.n	8000b24 <xQueueReceive+0xdc>
 8000b40:	23ff      	movs	r3, #255	; 0xff
 8000b42:	f884 3044 	strb.w	r3, [r4, #68]	; 0x44
 8000b46:	f7ff fcad 	bl	80004a4 <vPortExitCritical>
 8000b4a:	f000 fc7d 	bl	8001448 <xTaskResumeAll>
 8000b4e:	2800      	cmp	r0, #0
 8000b50:	d152      	bne.n	8000bf8 <xQueueReceive+0x1b0>
 8000b52:	f04f 5380 	mov.w	r3, #268435456	; 0x10000000
 8000b56:	f8c8 3000 	str.w	r3, [r8]
 8000b5a:	f3bf 8f4f 	dsb	sy
 8000b5e:	f3bf 8f6f 	isb	sy
 8000b62:	e049      	b.n	8000bf8 <xQueueReceive+0x1b0>
 8000b64:	f7ff fc8e 	bl	8000484 <vPortEnterCritical>
 8000b68:	f894 5045 	ldrb.w	r5, [r4, #69]	; 0x45
 8000b6c:	b26d      	sxtb	r5, r5
 8000b6e:	2d00      	cmp	r5, #0
 8000b70:	dc05      	bgt.n	8000b7e <xQueueReceive+0x136>
 8000b72:	e012      	b.n	8000b9a <xQueueReceive+0x152>
 8000b74:	1e6b      	subs	r3, r5, #1
 8000b76:	f013 0fff 	tst.w	r3, #255	; 0xff
 8000b7a:	b25d      	sxtb	r5, r3
 8000b7c:	d00d      	beq.n	8000b9a <xQueueReceive+0x152>
 8000b7e:	6a63      	ldr	r3, [r4, #36]	; 0x24
 8000b80:	4630      	mov	r0, r6
 8000b82:	b153      	cbz	r3, 8000b9a <xQueueReceive+0x152>
 8000b84:	f000 fe2a 	bl	80017dc <xTaskRemoveFromEventList>
 8000b88:	2800      	cmp	r0, #0
 8000b8a:	d0f3      	beq.n	8000b74 <xQueueReceive+0x12c>
 8000b8c:	f000 fea2 	bl	80018d4 <vTaskMissedYield>
 8000b90:	1e6b      	subs	r3, r5, #1
 8000b92:	f013 0fff 	tst.w	r3, #255	; 0xff
 8000b96:	b25d      	sxtb	r5, r3
 8000b98:	d1f1      	bne.n	8000b7e <xQueueReceive+0x136>
 8000b9a:	23ff      	movs	r3, #255	; 0xff
 8000b9c:	f884 3045 	strb.w	r3, [r4, #69]	; 0x45
 8000ba0:	f7ff fc80 	bl	80004a4 <vPortExitCritical>
 8000ba4:	f7ff fc6e 	bl	8000484 <vPortEnterCritical>
 8000ba8:	f894 5044 	ldrb.w	r5, [r4, #68]	; 0x44
 8000bac:	b26d      	sxtb	r5, r5
 8000bae:	2d00      	cmp	r5, #0
 8000bb0:	dd15      	ble.n	8000bde <xQueueReceive+0x196>
 8000bb2:	f104 0910 	add.w	r9, r4, #16
 8000bb6:	e004      	b.n	8000bc2 <xQueueReceive+0x17a>
 8000bb8:	1e6b      	subs	r3, r5, #1
 8000bba:	f013 0fff 	tst.w	r3, #255	; 0xff
 8000bbe:	b25d      	sxtb	r5, r3
 8000bc0:	d00d      	beq.n	8000bde <xQueueReceive+0x196>
 8000bc2:	6923      	ldr	r3, [r4, #16]
 8000bc4:	4648      	mov	r0, r9
 8000bc6:	b153      	cbz	r3, 8000bde <xQueueReceive+0x196>
 8000bc8:	f000 fe08 	bl	80017dc <xTaskRemoveFromEventList>
 8000bcc:	2800      	cmp	r0, #0
 8000bce:	d0f3      	beq.n	8000bb8 <xQueueReceive+0x170>
 8000bd0:	f000 fe80 	bl	80018d4 <vTaskMissedYield>
 8000bd4:	1e6b      	subs	r3, r5, #1
 8000bd6:	f013 0fff 	tst.w	r3, #255	; 0xff
 8000bda:	b25d      	sxtb	r5, r3
 8000bdc:	d1f1      	bne.n	8000bc2 <xQueueReceive+0x17a>
 8000bde:	23ff      	movs	r3, #255	; 0xff
 8000be0:	f884 3044 	strb.w	r3, [r4, #68]	; 0x44
 8000be4:	f7ff fc5e 	bl	80004a4 <vPortExitCritical>
 8000be8:	f000 fc2e 	bl	8001448 <xTaskResumeAll>
 8000bec:	f7ff fc4a 	bl	8000484 <vPortEnterCritical>
 8000bf0:	6ba3      	ldr	r3, [r4, #56]	; 0x38
 8000bf2:	b153      	cbz	r3, 8000c0a <xQueueReceive+0x1c2>
 8000bf4:	f7ff fc56 	bl	80004a4 <vPortExitCritical>
 8000bf8:	f7ff fc44 	bl	8000484 <vPortEnterCritical>
 8000bfc:	6ba5      	ldr	r5, [r4, #56]	; 0x38
 8000bfe:	2d00      	cmp	r5, #0
 8000c00:	d154      	bne.n	8000cac <xQueueReceive+0x264>
 8000c02:	9b01      	ldr	r3, [sp, #4]
 8000c04:	2b00      	cmp	r3, #0
 8000c06:	f47f af36 	bne.w	8000a76 <xQueueReceive+0x2e>
 8000c0a:	f7ff fc4b 	bl	80004a4 <vPortExitCritical>
 8000c0e:	2000      	movs	r0, #0
 8000c10:	b005      	add	sp, #20
 8000c12:	e8bd 83f0 	ldmia.w	sp!, {r4, r5, r6, r7, r8, r9, pc}
 8000c16:	f7ff fc45 	bl	80004a4 <vPortExitCritical>
 8000c1a:	f7ff fc33 	bl	8000484 <vPortEnterCritical>
 8000c1e:	f894 5045 	ldrb.w	r5, [r4, #69]	; 0x45
 8000c22:	b26d      	sxtb	r5, r5
 8000c24:	2d00      	cmp	r5, #0
 8000c26:	dc05      	bgt.n	8000c34 <xQueueReceive+0x1ec>
 8000c28:	e012      	b.n	8000c50 <xQueueReceive+0x208>
 8000c2a:	1e6b      	subs	r3, r5, #1
 8000c2c:	f013 0fff 	tst.w	r3, #255	; 0xff
 8000c30:	b25d      	sxtb	r5, r3
 8000c32:	d00d      	beq.n	8000c50 <xQueueReceive+0x208>
 8000c34:	6a63      	ldr	r3, [r4, #36]	; 0x24
 8000c36:	4630      	mov	r0, r6
 8000c38:	b153      	cbz	r3, 8000c50 <xQueueReceive+0x208>
 8000c3a:	f000 fdcf 	bl	80017dc <xTaskRemoveFromEventList>
 8000c3e:	2800      	cmp	r0, #0
 8000c40:	d0f3      	beq.n	8000c2a <xQueueReceive+0x1e2>
 8000c42:	f000 fe47 	bl	80018d4 <vTaskMissedYield>
 8000c46:	1e6b      	subs	r3, r5, #1
 8000c48:	f013 0fff 	tst.w	r3, #255	; 0xff
 8000c4c:	b25d      	sxtb	r5, r3
 8000c4e:	d1f1      	bne.n	8000c34 <xQueueReceive+0x1ec>
 8000c50:	23ff      	movs	r3, #255	; 0xff
 8000c52:	f884 3045 	strb.w	r3, [r4, #69]	; 0x45
 8000c56:	f7ff fc25 	bl	80004a4 <vPortExitCritical>
 8000c5a:	f7ff fc13 	bl	8000484 <vPortEnterCritical>
 8000c5e:	f894 5044 	ldrb.w	r5, [r4, #68]	; 0x44
 8000c62:	b26d      	sxtb	r5, r5
 8000c64:	2d00      	cmp	r5, #0
 8000c66:	dd15      	ble.n	8000c94 <xQueueReceive+0x24c>
 8000c68:	f104 0910 	add.w	r9, r4, #16
 8000c6c:	e004      	b.n	8000c78 <xQueueReceive+0x230>
 8000c6e:	1e6b      	subs	r3, r5, #1
 8000c70:	f013 0fff 	tst.w	r3, #255	; 0xff
 8000c74:	b25d      	sxtb	r5, r3
 8000c76:	d00d      	beq.n	8000c94 <xQueueReceive+0x24c>
 8000c78:	6923      	ldr	r3, [r4, #16]
 8000c7a:	4648      	mov	r0, r9
 8000c7c:	b153      	cbz	r3, 8000c94 <xQueueReceive+0x24c>
 8000c7e:	f000 fdad 	bl	80017dc <xTaskRemoveFromEventList>
 8000c82:	2800      	cmp	r0, #0
 8000c84:	d0f3      	beq.n	8000c6e <xQueueReceive+0x226>
 8000c86:	f000 fe25 	bl	80018d4 <vTaskMissedYield>
 8000c8a:	1e6b      	subs	r3, r5, #1
 8000c8c:	f013 0fff 	tst.w	r3, #255	; 0xff
 8000c90:	b25d      	sxtb	r5, r3
 8000c92:	d1f1      	bne.n	8000c78 <xQueueReceive+0x230>
 8000c94:	23ff      	movs	r3, #255	; 0xff
 8000c96:	f884 3044 	strb.w	r3, [r4, #68]	; 0x44
 8000c9a:	f7ff fc03 	bl	80004a4 <vPortExitCritical>
 8000c9e:	f000 fbd3 	bl	8001448 <xTaskResumeAll>
 8000ca2:	f7ff fbef 	bl	8000484 <vPortEnterCritical>
 8000ca6:	6ba5      	ldr	r5, [r4, #56]	; 0x38
 8000ca8:	2d00      	cmp	r5, #0
 8000caa:	d0aa      	beq.n	8000c02 <xQueueReceive+0x1ba>
 8000cac:	6c22      	ldr	r2, [r4, #64]	; 0x40
 8000cae:	b152      	cbz	r2, 8000cc6 <xQueueReceive+0x27e>
 8000cb0:	e9d4 3102 	ldrd	r3, r1, [r4, #8]
 8000cb4:	4411      	add	r1, r2
 8000cb6:	4299      	cmp	r1, r3
 8000cb8:	60e1      	str	r1, [r4, #12]
 8000cba:	bf24      	itt	cs
 8000cbc:	6821      	ldrcs	r1, [r4, #0]
 8000cbe:	60e1      	strcs	r1, [r4, #12]
 8000cc0:	4638      	mov	r0, r7
 8000cc2:	f001 f93d 	bl	8001f40 <memcpy>
 8000cc6:	3d01      	subs	r5, #1
 8000cc8:	63a5      	str	r5, [r4, #56]	; 0x38
 8000cca:	6923      	ldr	r3, [r4, #16]
 8000ccc:	b92b      	cbnz	r3, 8000cda <xQueueReceive+0x292>
 8000cce:	f7ff fbe9 	bl	80004a4 <vPortExitCritical>
 8000cd2:	2001      	movs	r0, #1
 8000cd4:	b005      	add	sp, #20
 8000cd6:	e8bd 83f0 	ldmia.w	sp!, {r4, r5, r6, r7, r8, r9, pc}
 8000cda:	f104 0010 	add.w	r0, r4, #16
 8000cde:	f000 fd7d 	bl	80017dc <xTaskRemoveFromEventList>
 8000ce2:	2800      	cmp	r0, #0
 8000ce4:	d0f3      	beq.n	8000cce <xQueueReceive+0x286>
 8000ce6:	4b04      	ldr	r3, [pc, #16]	; (8000cf8 <xQueueReceive+0x2b0>)
 8000ce8:	f04f 5280 	mov.w	r2, #268435456	; 0x10000000
 8000cec:	601a      	str	r2, [r3, #0]
 8000cee:	f3bf 8f4f 	dsb	sy
 8000cf2:	f3bf 8f6f 	isb	sy
 8000cf6:	e7ea      	b.n	8000cce <xQueueReceive+0x286>
 8000cf8:	e000ed04 	and	lr, r0, r4, lsl #26

08000cfc <vQueueAddToRegistry>:
 8000cfc:	4b13      	ldr	r3, [pc, #76]	; (8000d4c <vQueueAddToRegistry+0x50>)
 8000cfe:	681a      	ldr	r2, [r3, #0]
 8000d00:	b17a      	cbz	r2, 8000d22 <vQueueAddToRegistry+0x26>
 8000d02:	689a      	ldr	r2, [r3, #8]
 8000d04:	b1b2      	cbz	r2, 8000d34 <vQueueAddToRegistry+0x38>
 8000d06:	691a      	ldr	r2, [r3, #16]
 8000d08:	b1b2      	cbz	r2, 8000d38 <vQueueAddToRegistry+0x3c>
 8000d0a:	699a      	ldr	r2, [r3, #24]
 8000d0c:	b1b2      	cbz	r2, 8000d3c <vQueueAddToRegistry+0x40>
 8000d0e:	6a1a      	ldr	r2, [r3, #32]
 8000d10:	b1b2      	cbz	r2, 8000d40 <vQueueAddToRegistry+0x44>
 8000d12:	6a9a      	ldr	r2, [r3, #40]	; 0x28
 8000d14:	b1b2      	cbz	r2, 8000d44 <vQueueAddToRegistry+0x48>
 8000d16:	6b1a      	ldr	r2, [r3, #48]	; 0x30
 8000d18:	b112      	cbz	r2, 8000d20 <vQueueAddToRegistry+0x24>
 8000d1a:	6b9a      	ldr	r2, [r3, #56]	; 0x38
 8000d1c:	b1a2      	cbz	r2, 8000d48 <vQueueAddToRegistry+0x4c>
 8000d1e:	4770      	bx	lr
 8000d20:	2206      	movs	r2, #6
 8000d22:	b410      	push	{r4}
 8000d24:	eb03 04c2 	add.w	r4, r3, r2, lsl #3
 8000d28:	f843 1032 	str.w	r1, [r3, r2, lsl #3]
 8000d2c:	6060      	str	r0, [r4, #4]
 8000d2e:	f85d 4b04 	ldr.w	r4, [sp], #4
 8000d32:	4770      	bx	lr
 8000d34:	2201      	movs	r2, #1
 8000d36:	e7f4      	b.n	8000d22 <vQueueAddToRegistry+0x26>
 8000d38:	2202      	movs	r2, #2
 8000d3a:	e7f2      	b.n	8000d22 <vQueueAddToRegistry+0x26>
 8000d3c:	2203      	movs	r2, #3
 8000d3e:	e7f0      	b.n	8000d22 <vQueueAddToRegistry+0x26>
 8000d40:	2204      	movs	r2, #4
 8000d42:	e7ee      	b.n	8000d22 <vQueueAddToRegistry+0x26>
 8000d44:	2205      	movs	r2, #5
 8000d46:	e7ec      	b.n	8000d22 <vQueueAddToRegistry+0x26>
 8000d48:	2207      	movs	r2, #7
 8000d4a:	e7ea      	b.n	8000d22 <vQueueAddToRegistry+0x26>
 8000d4c:	20012d98 	mulcs	r1, r8, sp

08000d50 <vQueueWaitForMessageRestricted>:
 8000d50:	b570      	push	{r4, r5, r6, lr}
 8000d52:	4604      	mov	r4, r0
 8000d54:	460e      	mov	r6, r1
 8000d56:	4615      	mov	r5, r2
 8000d58:	f7ff fb94 	bl	8000484 <vPortEnterCritical>
 8000d5c:	f894 3044 	ldrb.w	r3, [r4, #68]	; 0x44
 8000d60:	2bff      	cmp	r3, #255	; 0xff
 8000d62:	bf04      	itt	eq
 8000d64:	2300      	moveq	r3, #0
 8000d66:	f884 3044 	strbeq.w	r3, [r4, #68]	; 0x44
 8000d6a:	f894 3045 	ldrb.w	r3, [r4, #69]	; 0x45
 8000d6e:	2bff      	cmp	r3, #255	; 0xff
 8000d70:	bf04      	itt	eq
 8000d72:	2300      	moveq	r3, #0
 8000d74:	f884 3045 	strbeq.w	r3, [r4, #69]	; 0x45
 8000d78:	f7ff fb94 	bl	80004a4 <vPortExitCritical>
 8000d7c:	6ba3      	ldr	r3, [r4, #56]	; 0x38
 8000d7e:	2b00      	cmp	r3, #0
 8000d80:	d045      	beq.n	8000e0e <vQueueWaitForMessageRestricted+0xbe>
 8000d82:	f7ff fb7f 	bl	8000484 <vPortEnterCritical>
 8000d86:	f894 5045 	ldrb.w	r5, [r4, #69]	; 0x45
 8000d8a:	b26d      	sxtb	r5, r5
 8000d8c:	2d00      	cmp	r5, #0
 8000d8e:	dd15      	ble.n	8000dbc <vQueueWaitForMessageRestricted+0x6c>
 8000d90:	f104 0624 	add.w	r6, r4, #36	; 0x24
 8000d94:	e004      	b.n	8000da0 <vQueueWaitForMessageRestricted+0x50>
 8000d96:	1e6b      	subs	r3, r5, #1
 8000d98:	f013 0fff 	tst.w	r3, #255	; 0xff
 8000d9c:	b25d      	sxtb	r5, r3
 8000d9e:	d00d      	beq.n	8000dbc <vQueueWaitForMessageRestricted+0x6c>
 8000da0:	6a63      	ldr	r3, [r4, #36]	; 0x24
 8000da2:	4630      	mov	r0, r6
 8000da4:	b153      	cbz	r3, 8000dbc <vQueueWaitForMessageRestricted+0x6c>
 8000da6:	f000 fd19 	bl	80017dc <xTaskRemoveFromEventList>
 8000daa:	2800      	cmp	r0, #0
 8000dac:	d0f3      	beq.n	8000d96 <vQueueWaitForMessageRestricted+0x46>
 8000dae:	f000 fd91 	bl	80018d4 <vTaskMissedYield>
 8000db2:	1e6b      	subs	r3, r5, #1
 8000db4:	f013 0fff 	tst.w	r3, #255	; 0xff
 8000db8:	b25d      	sxtb	r5, r3
 8000dba:	d1f1      	bne.n	8000da0 <vQueueWaitForMessageRestricted+0x50>
 8000dbc:	23ff      	movs	r3, #255	; 0xff
 8000dbe:	f884 3045 	strb.w	r3, [r4, #69]	; 0x45
 8000dc2:	f7ff fb6f 	bl	80004a4 <vPortExitCritical>
 8000dc6:	f7ff fb5d 	bl	8000484 <vPortEnterCritical>
 8000dca:	f894 5044 	ldrb.w	r5, [r4, #68]	; 0x44
 8000dce:	b26d      	sxtb	r5, r5
 8000dd0:	2d00      	cmp	r5, #0
 8000dd2:	dd15      	ble.n	8000e00 <vQueueWaitForMessageRestricted+0xb0>
 8000dd4:	f104 0610 	add.w	r6, r4, #16
 8000dd8:	e004      	b.n	8000de4 <vQueueWaitForMessageRestricted+0x94>
 8000dda:	1e6b      	subs	r3, r5, #1
 8000ddc:	f013 0fff 	tst.w	r3, #255	; 0xff
 8000de0:	b25d      	sxtb	r5, r3
 8000de2:	d00d      	beq.n	8000e00 <vQueueWaitForMessageRestricted+0xb0>
 8000de4:	6923      	ldr	r3, [r4, #16]
 8000de6:	4630      	mov	r0, r6
 8000de8:	b153      	cbz	r3, 8000e00 <vQueueWaitForMessageRestricted+0xb0>
 8000dea:	f000 fcf7 	bl	80017dc <xTaskRemoveFromEventList>
 8000dee:	2800      	cmp	r0, #0
 8000df0:	d0f3      	beq.n	8000dda <vQueueWaitForMessageRestricted+0x8a>
 8000df2:	f000 fd6f 	bl	80018d4 <vTaskMissedYield>
 8000df6:	1e6b      	subs	r3, r5, #1
 8000df8:	f013 0fff 	tst.w	r3, #255	; 0xff
 8000dfc:	b25d      	sxtb	r5, r3
 8000dfe:	d1f1      	bne.n	8000de4 <vQueueWaitForMessageRestricted+0x94>
 8000e00:	23ff      	movs	r3, #255	; 0xff
 8000e02:	f884 3044 	strb.w	r3, [r4, #68]	; 0x44
 8000e06:	e8bd 4070 	ldmia.w	sp!, {r4, r5, r6, lr}
 8000e0a:	f7ff bb4b 	b.w	80004a4 <vPortExitCritical>
 8000e0e:	462a      	mov	r2, r5
 8000e10:	4631      	mov	r1, r6
 8000e12:	f104 0024 	add.w	r0, r4, #36	; 0x24
 8000e16:	f000 fc8f 	bl	8001738 <vTaskPlaceOnEventListRestricted>
 8000e1a:	e7b2      	b.n	8000d82 <vQueueWaitForMessageRestricted+0x32>

08000e1c <prvIdleTask>:
 8000e1c:	b580      	push	{r7, lr}
 8000e1e:	4c16      	ldr	r4, [pc, #88]	; (8000e78 <prvIdleTask+0x5c>)
 8000e20:	4f16      	ldr	r7, [pc, #88]	; (8000e7c <prvIdleTask+0x60>)
 8000e22:	4e17      	ldr	r6, [pc, #92]	; (8000e80 <prvIdleTask+0x64>)
 8000e24:	f8df 805c 	ldr.w	r8, [pc, #92]	; 8000e84 <prvIdleTask+0x68>
 8000e28:	f8df a05c 	ldr.w	sl, [pc, #92]	; 8000e88 <prvIdleTask+0x6c>
 8000e2c:	f04f 5980 	mov.w	r9, #268435456	; 0x10000000
 8000e30:	e014      	b.n	8000e5c <prvIdleTask+0x40>
 8000e32:	f7ff fb27 	bl	8000484 <vPortEnterCritical>
 8000e36:	68fb      	ldr	r3, [r7, #12]
 8000e38:	68dd      	ldr	r5, [r3, #12]
 8000e3a:	1d28      	adds	r0, r5, #4
 8000e3c:	f7ff fc0e 	bl	800065c <uxListRemove>
 8000e40:	6833      	ldr	r3, [r6, #0]
 8000e42:	3b01      	subs	r3, #1
 8000e44:	6033      	str	r3, [r6, #0]
 8000e46:	6823      	ldr	r3, [r4, #0]
 8000e48:	3b01      	subs	r3, #1
 8000e4a:	6023      	str	r3, [r4, #0]
 8000e4c:	f7ff fb2a 	bl	80004a4 <vPortExitCritical>
 8000e50:	6b28      	ldr	r0, [r5, #48]	; 0x30
 8000e52:	f7ff fa6f 	bl	8000334 <vPortFree>
 8000e56:	4628      	mov	r0, r5
 8000e58:	f7ff fa6c 	bl	8000334 <vPortFree>
 8000e5c:	6823      	ldr	r3, [r4, #0]
 8000e5e:	2b00      	cmp	r3, #0
 8000e60:	d1e7      	bne.n	8000e32 <prvIdleTask+0x16>
 8000e62:	f8d8 3000 	ldr.w	r3, [r8]
 8000e66:	2b01      	cmp	r3, #1
 8000e68:	d9f8      	bls.n	8000e5c <prvIdleTask+0x40>
 8000e6a:	f8ca 9000 	str.w	r9, [sl]
 8000e6e:	f3bf 8f4f 	dsb	sy
 8000e72:	f3bf 8f6f 	isb	sy
 8000e76:	e7f1      	b.n	8000e5c <prvIdleTask+0x40>
 8000e78:	20012ccc 	andcs	r2, r1, ip, asr #25
 8000e7c:	20012d40 	andcs	r2, r1, r0, asr #26
 8000e80:	20012cc8 	andcs	r2, r1, r8, asr #25
 8000e84:	20012c64 	andcs	r2, r1, r4, ror #24
 8000e88:	e000ed04 	and	lr, r0, r4, lsl #26

08000e8c <xTaskIncrementTick.part.0>:
 8000e8c:	e92d 4ff0 	stmdb	sp!, {r4, r5, r6, r7, r8, r9, sl, fp, lr}
 8000e90:	4b46      	ldr	r3, [pc, #280]	; (8000fac <xTaskIncrementTick.part.0+0x120>)
 8000e92:	681d      	ldr	r5, [r3, #0]
 8000e94:	3501      	adds	r5, #1
 8000e96:	b083      	sub	sp, #12
 8000e98:	601d      	str	r5, [r3, #0]
 8000e9a:	2d00      	cmp	r5, #0
 8000e9c:	d045      	beq.n	8000f2a <xTaskIncrementTick.part.0+0x9e>
 8000e9e:	4b44      	ldr	r3, [pc, #272]	; (8000fb0 <xTaskIncrementTick.part.0+0x124>)
 8000ea0:	9301      	str	r3, [sp, #4]
 8000ea2:	681b      	ldr	r3, [r3, #0]
 8000ea4:	429d      	cmp	r5, r3
 8000ea6:	d357      	bcc.n	8000f58 <xTaskIncrementTick.part.0+0xcc>
 8000ea8:	4e42      	ldr	r6, [pc, #264]	; (8000fb4 <xTaskIncrementTick.part.0+0x128>)
 8000eaa:	6833      	ldr	r3, [r6, #0]
 8000eac:	681c      	ldr	r4, [r3, #0]
 8000eae:	2c00      	cmp	r4, #0
 8000eb0:	d073      	beq.n	8000f9a <xTaskIncrementTick.part.0+0x10e>
 8000eb2:	f8df 8114 	ldr.w	r8, [pc, #276]	; 8000fc8 <xTaskIncrementTick.part.0+0x13c>
 8000eb6:	f8df 9114 	ldr.w	r9, [pc, #276]	; 8000fcc <xTaskIncrementTick.part.0+0x140>
 8000eba:	4f3f      	ldr	r7, [pc, #252]	; (8000fb8 <xTaskIncrementTick.part.0+0x12c>)
 8000ebc:	2400      	movs	r4, #0
 8000ebe:	f04f 0a01 	mov.w	sl, #1
 8000ec2:	e024      	b.n	8000f0e <xTaskIncrementTick.part.0+0x82>
 8000ec4:	9100      	str	r1, [sp, #0]
 8000ec6:	f7ff fbc9 	bl	800065c <uxListRemove>
 8000eca:	f8db 2028 	ldr.w	r2, [fp, #40]	; 0x28
 8000ece:	9900      	ldr	r1, [sp, #0]
 8000ed0:	f10b 0018 	add.w	r0, fp, #24
 8000ed4:	b112      	cbz	r2, 8000edc <xTaskIncrementTick.part.0+0x50>
 8000ed6:	f7ff fbc1 	bl	800065c <uxListRemove>
 8000eda:	9900      	ldr	r1, [sp, #0]
 8000edc:	f8db 002c 	ldr.w	r0, [fp, #44]	; 0x2c
 8000ee0:	683b      	ldr	r3, [r7, #0]
 8000ee2:	fa0a f200 	lsl.w	r2, sl, r0
 8000ee6:	eb00 0080 	add.w	r0, r0, r0, lsl #2
 8000eea:	431a      	orrs	r2, r3
 8000eec:	eb08 0080 	add.w	r0, r8, r0, lsl #2
 8000ef0:	603a      	str	r2, [r7, #0]
 8000ef2:	f7ff fb8b 	bl	800060c <vListInsertEnd>
 8000ef6:	f8d9 2000 	ldr.w	r2, [r9]
 8000efa:	6830      	ldr	r0, [r6, #0]
 8000efc:	f8db 102c 	ldr.w	r1, [fp, #44]	; 0x2c
 8000f00:	6ad2      	ldr	r2, [r2, #44]	; 0x2c
 8000f02:	6803      	ldr	r3, [r0, #0]
 8000f04:	4291      	cmp	r1, r2
 8000f06:	bf28      	it	cs
 8000f08:	2401      	movcs	r4, #1
 8000f0a:	2b00      	cmp	r3, #0
 8000f0c:	d049      	beq.n	8000fa2 <xTaskIncrementTick.part.0+0x116>
 8000f0e:	6833      	ldr	r3, [r6, #0]
 8000f10:	68db      	ldr	r3, [r3, #12]
 8000f12:	f8d3 b00c 	ldr.w	fp, [r3, #12]
 8000f16:	f8db 2004 	ldr.w	r2, [fp, #4]
 8000f1a:	f10b 0104 	add.w	r1, fp, #4
 8000f1e:	4295      	cmp	r5, r2
 8000f20:	4608      	mov	r0, r1
 8000f22:	d2cf      	bcs.n	8000ec4 <xTaskIncrementTick.part.0+0x38>
 8000f24:	9b01      	ldr	r3, [sp, #4]
 8000f26:	601a      	str	r2, [r3, #0]
 8000f28:	e01b      	b.n	8000f62 <xTaskIncrementTick.part.0+0xd6>
 8000f2a:	4b22      	ldr	r3, [pc, #136]	; (8000fb4 <xTaskIncrementTick.part.0+0x128>)
 8000f2c:	4a23      	ldr	r2, [pc, #140]	; (8000fbc <xTaskIncrementTick.part.0+0x130>)
 8000f2e:	6818      	ldr	r0, [r3, #0]
 8000f30:	4923      	ldr	r1, [pc, #140]	; (8000fc0 <xTaskIncrementTick.part.0+0x134>)
 8000f32:	6814      	ldr	r4, [r2, #0]
 8000f34:	601c      	str	r4, [r3, #0]
 8000f36:	6010      	str	r0, [r2, #0]
 8000f38:	680a      	ldr	r2, [r1, #0]
 8000f3a:	3201      	adds	r2, #1
 8000f3c:	600a      	str	r2, [r1, #0]
 8000f3e:	681a      	ldr	r2, [r3, #0]
 8000f40:	6812      	ldr	r2, [r2, #0]
 8000f42:	bb12      	cbnz	r2, 8000f8a <xTaskIncrementTick.part.0+0xfe>
 8000f44:	4b1a      	ldr	r3, [pc, #104]	; (8000fb0 <xTaskIncrementTick.part.0+0x124>)
 8000f46:	9301      	str	r3, [sp, #4]
 8000f48:	461a      	mov	r2, r3
 8000f4a:	f04f 33ff 	mov.w	r3, #4294967295
 8000f4e:	6013      	str	r3, [r2, #0]
 8000f50:	4613      	mov	r3, r2
 8000f52:	681b      	ldr	r3, [r3, #0]
 8000f54:	429d      	cmp	r5, r3
 8000f56:	d2a7      	bcs.n	8000ea8 <xTaskIncrementTick.part.0+0x1c>
 8000f58:	f8df 806c 	ldr.w	r8, [pc, #108]	; 8000fc8 <xTaskIncrementTick.part.0+0x13c>
 8000f5c:	f8df 906c 	ldr.w	r9, [pc, #108]	; 8000fcc <xTaskIncrementTick.part.0+0x140>
 8000f60:	2400      	movs	r4, #0
 8000f62:	f8d9 3000 	ldr.w	r3, [r9]
 8000f66:	4917      	ldr	r1, [pc, #92]	; (8000fc4 <xTaskIncrementTick.part.0+0x138>)
 8000f68:	6adb      	ldr	r3, [r3, #44]	; 0x2c
 8000f6a:	eb03 0383 	add.w	r3, r3, r3, lsl #2
 8000f6e:	009b      	lsls	r3, r3, #2
 8000f70:	f858 2003 	ldr.w	r2, [r8, r3]
 8000f74:	680b      	ldr	r3, [r1, #0]
 8000f76:	2a02      	cmp	r2, #2
 8000f78:	bf28      	it	cs
 8000f7a:	2401      	movcs	r4, #1
 8000f7c:	2b00      	cmp	r3, #0
 8000f7e:	bf0c      	ite	eq
 8000f80:	4620      	moveq	r0, r4
 8000f82:	2001      	movne	r0, #1
 8000f84:	b003      	add	sp, #12
 8000f86:	e8bd 8ff0 	ldmia.w	sp!, {r4, r5, r6, r7, r8, r9, sl, fp, pc}
 8000f8a:	681b      	ldr	r3, [r3, #0]
 8000f8c:	4a08      	ldr	r2, [pc, #32]	; (8000fb0 <xTaskIncrementTick.part.0+0x124>)
 8000f8e:	68db      	ldr	r3, [r3, #12]
 8000f90:	9201      	str	r2, [sp, #4]
 8000f92:	681b      	ldr	r3, [r3, #0]
 8000f94:	6013      	str	r3, [r2, #0]
 8000f96:	4613      	mov	r3, r2
 8000f98:	e783      	b.n	8000ea2 <xTaskIncrementTick.part.0+0x16>
 8000f9a:	f8df 802c 	ldr.w	r8, [pc, #44]	; 8000fc8 <xTaskIncrementTick.part.0+0x13c>
 8000f9e:	f8df 902c 	ldr.w	r9, [pc, #44]	; 8000fcc <xTaskIncrementTick.part.0+0x140>
 8000fa2:	9a01      	ldr	r2, [sp, #4]
 8000fa4:	f04f 33ff 	mov.w	r3, #4294967295
 8000fa8:	6013      	str	r3, [r2, #0]
 8000faa:	e7da      	b.n	8000f62 <xTaskIncrementTick.part.0+0xd6>
 8000fac:	20012d54 	andcs	r2, r1, r4, asr sp
 8000fb0:	20012d08 	andcs	r2, r1, r8, lsl #26
 8000fb4:	20012c5c 	andcs	r2, r1, ip, asr ip
 8000fb8:	20012cd8 	ldrdcs	r2, [r1], -r8
 8000fbc:	20012c60 	andcs	r2, r1, r0, ror #24
 8000fc0:	20012d0c 	andcs	r2, r1, ip, lsl #26
 8000fc4:	20012d58 	andcs	r2, r1, r8, asr sp
 8000fc8:	20012c64 	andcs	r2, r1, r4, ror #24
 8000fcc:	20012c58 	andcs	r2, r1, r8, asr ip

08000fd0 <xTaskCreate>:
 8000fd0:	e92d 4ff8 	stmdb	sp!, {r3, r4, r5, r6, r7, r8, r9, sl, fp, lr}
 8000fd4:	0096      	lsls	r6, r2, #2
 8000fd6:	4680      	mov	r8, r0
 8000fd8:	4630      	mov	r0, r6
 8000fda:	460d      	mov	r5, r1
 8000fdc:	4699      	mov	r9, r3
 8000fde:	f7ff f8ff 	bl	80001e0 <pvPortMalloc>
 8000fe2:	2800      	cmp	r0, #0
 8000fe4:	f000 80be 	beq.w	8001164 <xTaskCreate+0x194>
 8000fe8:	4607      	mov	r7, r0
 8000fea:	2058      	movs	r0, #88	; 0x58
 8000fec:	f7ff f8f8 	bl	80001e0 <pvPortMalloc>
 8000ff0:	4604      	mov	r4, r0
 8000ff2:	2800      	cmp	r0, #0
 8000ff4:	f000 80c1 	beq.w	800117a <xTaskCreate+0x1aa>
 8000ff8:	6307      	str	r7, [r0, #48]	; 0x30
 8000ffa:	4632      	mov	r2, r6
 8000ffc:	4638      	mov	r0, r7
 8000ffe:	21a5      	movs	r1, #165	; 0xa5
 8001000:	f000 ffac 	bl	8001f5c <memset>
 8001004:	f8d4 a030 	ldr.w	sl, [r4, #48]	; 0x30
 8001008:	2d00      	cmp	r5, #0
 800100a:	f000 80c7 	beq.w	800119c <xTaskCreate+0x1cc>
 800100e:	f995 3000 	ldrsb.w	r3, [r5]
 8001012:	f884 3034 	strb.w	r3, [r4, #52]	; 0x34
 8001016:	f995 3000 	ldrsb.w	r3, [r5]
 800101a:	b3db      	cbz	r3, 8001094 <xTaskCreate+0xc4>
 800101c:	f995 3001 	ldrsb.w	r3, [r5, #1]
 8001020:	f884 3035 	strb.w	r3, [r4, #53]	; 0x35
 8001024:	f995 3001 	ldrsb.w	r3, [r5, #1]
 8001028:	b3a3      	cbz	r3, 8001094 <xTaskCreate+0xc4>
 800102a:	f995 3002 	ldrsb.w	r3, [r5, #2]
 800102e:	f884 3036 	strb.w	r3, [r4, #54]	; 0x36
 8001032:	f995 3002 	ldrsb.w	r3, [r5, #2]
 8001036:	b36b      	cbz	r3, 8001094 <xTaskCreate+0xc4>
 8001038:	f995 3003 	ldrsb.w	r3, [r5, #3]
 800103c:	f884 3037 	strb.w	r3, [r4, #55]	; 0x37
 8001040:	f995 3003 	ldrsb.w	r3, [r5, #3]
 8001044:	b333      	cbz	r3, 8001094 <xTaskCreate+0xc4>
 8001046:	f995 3004 	ldrsb.w	r3, [r5, #4]
 800104a:	f884 3038 	strb.w	r3, [r4, #56]	; 0x38
 800104e:	f995 3004 	ldrsb.w	r3, [r5, #4]
 8001052:	b1fb      	cbz	r3, 8001094 <xTaskCreate+0xc4>
 8001054:	f995 3005 	ldrsb.w	r3, [r5, #5]
 8001058:	f884 3039 	strb.w	r3, [r4, #57]	; 0x39
 800105c:	f995 3005 	ldrsb.w	r3, [r5, #5]
 8001060:	b1c3      	cbz	r3, 8001094 <xTaskCreate+0xc4>
 8001062:	f995 3006 	ldrsb.w	r3, [r5, #6]
 8001066:	f884 303a 	strb.w	r3, [r4, #58]	; 0x3a
 800106a:	f995 3006 	ldrsb.w	r3, [r5, #6]
 800106e:	b18b      	cbz	r3, 8001094 <xTaskCreate+0xc4>
 8001070:	f995 3007 	ldrsb.w	r3, [r5, #7]
 8001074:	f884 303b 	strb.w	r3, [r4, #59]	; 0x3b
 8001078:	f995 3007 	ldrsb.w	r3, [r5, #7]
 800107c:	b153      	cbz	r3, 8001094 <xTaskCreate+0xc4>
 800107e:	f995 3008 	ldrsb.w	r3, [r5, #8]
 8001082:	f884 303c 	strb.w	r3, [r4, #60]	; 0x3c
 8001086:	f995 3008 	ldrsb.w	r3, [r5, #8]
 800108a:	b11b      	cbz	r3, 8001094 <xTaskCreate+0xc4>
 800108c:	f995 3009 	ldrsb.w	r3, [r5, #9]
 8001090:	f884 303d 	strb.w	r3, [r4, #61]	; 0x3d
 8001094:	2300      	movs	r3, #0
 8001096:	f884 303d 	strb.w	r3, [r4, #61]	; 0x3d
 800109a:	9d0a      	ldr	r5, [sp, #40]	; 0x28
 800109c:	2d04      	cmp	r5, #4
 800109e:	bf28      	it	cs
 80010a0:	2504      	movcs	r5, #4
 80010a2:	f04f 0b00 	mov.w	fp, #0
 80010a6:	1d27      	adds	r7, r4, #4
 80010a8:	e9c4 5b12 	strd	r5, fp, [r4, #72]	; 0x48
 80010ac:	62e5      	str	r5, [r4, #44]	; 0x2c
 80010ae:	4638      	mov	r0, r7
 80010b0:	3e04      	subs	r6, #4
 80010b2:	f7ff faa7 	bl	8000604 <vListInitialiseItem>
 80010b6:	f1c5 0505 	rsb	r5, r5, #5
 80010ba:	f104 0018 	add.w	r0, r4, #24
 80010be:	4456      	add	r6, sl
 80010c0:	f7ff faa0 	bl	8000604 <vListInitialiseItem>
 80010c4:	61a5      	str	r5, [r4, #24]
 80010c6:	f026 0007 	bic.w	r0, r6, #7
 80010ca:	f8c4 b050 	str.w	fp, [r4, #80]	; 0x50
 80010ce:	f884 b054 	strb.w	fp, [r4, #84]	; 0x54
 80010d2:	6124      	str	r4, [r4, #16]
 80010d4:	6264      	str	r4, [r4, #36]	; 0x24
 80010d6:	464a      	mov	r2, r9
 80010d8:	4641      	mov	r1, r8
 80010da:	f7ff f9a7 	bl	800042c <pxPortInitialiseStack>
 80010de:	9b0b      	ldr	r3, [sp, #44]	; 0x2c
 80010e0:	6020      	str	r0, [r4, #0]
 80010e2:	b103      	cbz	r3, 80010e6 <xTaskCreate+0x116>
 80010e4:	601c      	str	r4, [r3, #0]
 80010e6:	f7ff f9cd 	bl	8000484 <vPortEnterCritical>
 80010ea:	4a43      	ldr	r2, [pc, #268]	; (80011f8 <xTaskCreate+0x228>)
 80010ec:	4e43      	ldr	r6, [pc, #268]	; (80011fc <xTaskCreate+0x22c>)
 80010ee:	6813      	ldr	r3, [r2, #0]
 80010f0:	3301      	adds	r3, #1
 80010f2:	6013      	str	r3, [r2, #0]
 80010f4:	6833      	ldr	r3, [r6, #0]
 80010f6:	2b00      	cmp	r3, #0
 80010f8:	d048      	beq.n	800118c <xTaskCreate+0x1bc>
 80010fa:	f8df 8134 	ldr.w	r8, [pc, #308]	; 8001230 <xTaskCreate+0x260>
 80010fe:	f8d8 3000 	ldr.w	r3, [r8]
 8001102:	b39b      	cbz	r3, 800116c <xTaskCreate+0x19c>
 8001104:	6ae3      	ldr	r3, [r4, #44]	; 0x2c
 8001106:	f8df 912c 	ldr.w	r9, [pc, #300]	; 8001234 <xTaskCreate+0x264>
 800110a:	f8df c12c 	ldr.w	ip, [pc, #300]	; 8001238 <xTaskCreate+0x268>
 800110e:	f8d9 2000 	ldr.w	r2, [r9]
 8001112:	f8dc e000 	ldr.w	lr, [ip]
 8001116:	483a      	ldr	r0, [pc, #232]	; (8001200 <xTaskCreate+0x230>)
 8001118:	3201      	adds	r2, #1
 800111a:	2501      	movs	r5, #1
 800111c:	6422      	str	r2, [r4, #64]	; 0x40
 800111e:	f8c9 2000 	str.w	r2, [r9]
 8001122:	fa05 f203 	lsl.w	r2, r5, r3
 8001126:	eb03 0383 	add.w	r3, r3, r3, lsl #2
 800112a:	ea42 020e 	orr.w	r2, r2, lr
 800112e:	eb00 0083 	add.w	r0, r0, r3, lsl #2
 8001132:	4639      	mov	r1, r7
 8001134:	f8cc 2000 	str.w	r2, [ip]
 8001138:	f7ff fa68 	bl	800060c <vListInsertEnd>
 800113c:	f7ff f9b2 	bl	80004a4 <vPortExitCritical>
 8001140:	f8d8 3000 	ldr.w	r3, [r8]
 8001144:	b1fb      	cbz	r3, 8001186 <xTaskCreate+0x1b6>
 8001146:	6832      	ldr	r2, [r6, #0]
 8001148:	6ae3      	ldr	r3, [r4, #44]	; 0x2c
 800114a:	6ad2      	ldr	r2, [r2, #44]	; 0x2c
 800114c:	429a      	cmp	r2, r3
 800114e:	d21a      	bcs.n	8001186 <xTaskCreate+0x1b6>
 8001150:	4b2c      	ldr	r3, [pc, #176]	; (8001204 <xTaskCreate+0x234>)
 8001152:	f04f 5280 	mov.w	r2, #268435456	; 0x10000000
 8001156:	601a      	str	r2, [r3, #0]
 8001158:	f3bf 8f4f 	dsb	sy
 800115c:	f3bf 8f6f 	isb	sy
 8001160:	4628      	mov	r0, r5
 8001162:	e001      	b.n	8001168 <xTaskCreate+0x198>
 8001164:	f04f 30ff 	mov.w	r0, #4294967295
 8001168:	e8bd 8ff8 	ldmia.w	sp!, {r3, r4, r5, r6, r7, r8, r9, sl, fp, pc}
 800116c:	6832      	ldr	r2, [r6, #0]
 800116e:	6ae3      	ldr	r3, [r4, #44]	; 0x2c
 8001170:	6ad2      	ldr	r2, [r2, #44]	; 0x2c
 8001172:	429a      	cmp	r2, r3
 8001174:	bf98      	it	ls
 8001176:	6034      	strls	r4, [r6, #0]
 8001178:	e7c5      	b.n	8001106 <xTaskCreate+0x136>
 800117a:	4638      	mov	r0, r7
 800117c:	f7ff f8da 	bl	8000334 <vPortFree>
 8001180:	f04f 30ff 	mov.w	r0, #4294967295
 8001184:	e7f0      	b.n	8001168 <xTaskCreate+0x198>
 8001186:	4628      	mov	r0, r5
 8001188:	e8bd 8ff8 	ldmia.w	sp!, {r3, r4, r5, r6, r7, r8, r9, sl, fp, pc}
 800118c:	6034      	str	r4, [r6, #0]
 800118e:	6813      	ldr	r3, [r2, #0]
 8001190:	2b01      	cmp	r3, #1
 8001192:	d006      	beq.n	80011a2 <xTaskCreate+0x1d2>
 8001194:	6ae3      	ldr	r3, [r4, #44]	; 0x2c
 8001196:	f8df 8098 	ldr.w	r8, [pc, #152]	; 8001230 <xTaskCreate+0x260>
 800119a:	e7b4      	b.n	8001106 <xTaskCreate+0x136>
 800119c:	f884 5034 	strb.w	r5, [r4, #52]	; 0x34
 80011a0:	e77b      	b.n	800109a <xTaskCreate+0xca>
 80011a2:	4817      	ldr	r0, [pc, #92]	; (8001200 <xTaskCreate+0x230>)
 80011a4:	f8df 9094 	ldr.w	r9, [pc, #148]	; 800123c <xTaskCreate+0x26c>
 80011a8:	4d17      	ldr	r5, [pc, #92]	; (8001208 <xTaskCreate+0x238>)
 80011aa:	f8df 8084 	ldr.w	r8, [pc, #132]	; 8001230 <xTaskCreate+0x260>
 80011ae:	f7ff fa1d 	bl	80005ec <vListInitialise>
 80011b2:	4816      	ldr	r0, [pc, #88]	; (800120c <xTaskCreate+0x23c>)
 80011b4:	f7ff fa1a 	bl	80005ec <vListInitialise>
 80011b8:	4815      	ldr	r0, [pc, #84]	; (8001210 <xTaskCreate+0x240>)
 80011ba:	f7ff fa17 	bl	80005ec <vListInitialise>
 80011be:	4815      	ldr	r0, [pc, #84]	; (8001214 <xTaskCreate+0x244>)
 80011c0:	f7ff fa14 	bl	80005ec <vListInitialise>
 80011c4:	4814      	ldr	r0, [pc, #80]	; (8001218 <xTaskCreate+0x248>)
 80011c6:	f7ff fa11 	bl	80005ec <vListInitialise>
 80011ca:	4648      	mov	r0, r9
 80011cc:	f7ff fa0e 	bl	80005ec <vListInitialise>
 80011d0:	4628      	mov	r0, r5
 80011d2:	f7ff fa0b 	bl	80005ec <vListInitialise>
 80011d6:	4811      	ldr	r0, [pc, #68]	; (800121c <xTaskCreate+0x24c>)
 80011d8:	f7ff fa08 	bl	80005ec <vListInitialise>
 80011dc:	4810      	ldr	r0, [pc, #64]	; (8001220 <xTaskCreate+0x250>)
 80011de:	f7ff fa05 	bl	80005ec <vListInitialise>
 80011e2:	4810      	ldr	r0, [pc, #64]	; (8001224 <xTaskCreate+0x254>)
 80011e4:	f7ff fa02 	bl	80005ec <vListInitialise>
 80011e8:	4b0f      	ldr	r3, [pc, #60]	; (8001228 <xTaskCreate+0x258>)
 80011ea:	4a10      	ldr	r2, [pc, #64]	; (800122c <xTaskCreate+0x25c>)
 80011ec:	f8c2 9000 	str.w	r9, [r2]
 80011f0:	601d      	str	r5, [r3, #0]
 80011f2:	6ae3      	ldr	r3, [r4, #44]	; 0x2c
 80011f4:	e787      	b.n	8001106 <xTaskCreate+0x136>
 80011f6:	bf00      	nop
 80011f8:	20012cc8 	andcs	r2, r1, r8, asr #25
 80011fc:	20012c58 	andcs	r2, r1, r8, asr ip
 8001200:	20012c64 	andcs	r2, r1, r4, ror #24
 8001204:	e000ed04 	and	lr, r0, r4, lsl #26
 8001208:	20012cf0 	strdcs	r2, [r1], -r0
 800120c:	20012c78 	andcs	r2, r1, r8, ror ip
 8001210:	20012c8c 	andcs	r2, r1, ip, lsl #25
 8001214:	20012ca0 	andcs	r2, r1, r0, lsr #25
 8001218:	20012cb4 			; <UNDEFINED> instruction: 0x20012cb4
 800121c:	20012d14 	andcs	r2, r1, r4, lsl sp
 8001220:	20012d40 	andcs	r2, r1, r0, asr #26
 8001224:	20012d2c 	andcs	r2, r1, ip, lsr #26
 8001228:	20012c60 	andcs	r2, r1, r0, ror #24
 800122c:	20012c5c 	andcs	r2, r1, ip, asr ip
 8001230:	20012d28 	andcs	r2, r1, r8, lsr #26
 8001234:	20012cd4 	ldrdcs	r2, [r1], -r4
 8001238:	20012cd8 	ldrdcs	r2, [r1], -r8
 800123c:	20012cdc 	ldrdcs	r2, [r1], -ip

08001240 <vTaskStartScheduler>:
 8001240:	e92d 43f8 	stmdb	sp!, {r3, r4, r5, r6, r7, r8, r9, lr}
 8001244:	f44f 7002 	mov.w	r0, #520	; 0x208
 8001248:	f7fe ffca 	bl	80001e0 <pvPortMalloc>
 800124c:	2800      	cmp	r0, #0
 800124e:	f000 8081 	beq.w	8001354 <vTaskStartScheduler+0x114>
 8001252:	4605      	mov	r5, r0
 8001254:	2058      	movs	r0, #88	; 0x58
 8001256:	f7fe ffc3 	bl	80001e0 <pvPortMalloc>
 800125a:	4604      	mov	r4, r0
 800125c:	2800      	cmp	r0, #0
 800125e:	d07d      	beq.n	800135c <vTaskStartScheduler+0x11c>
 8001260:	f44f 7202 	mov.w	r2, #520	; 0x208
 8001264:	21a5      	movs	r1, #165	; 0xa5
 8001266:	6305      	str	r5, [r0, #48]	; 0x30
 8001268:	4628      	mov	r0, r5
 800126a:	f000 fe77 	bl	8001f5c <memset>
 800126e:	2500      	movs	r5, #0
 8001270:	4b59      	ldr	r3, [pc, #356]	; (80013d8 <vTaskStartScheduler+0x198>)
 8001272:	6363      	str	r3, [r4, #52]	; 0x34
 8001274:	f104 0804 	add.w	r8, r4, #4
 8001278:	6b26      	ldr	r6, [r4, #48]	; 0x30
 800127a:	f884 5038 	strb.w	r5, [r4, #56]	; 0x38
 800127e:	4640      	mov	r0, r8
 8001280:	e9c4 5512 	strd	r5, r5, [r4, #72]	; 0x48
 8001284:	f884 503d 	strb.w	r5, [r4, #61]	; 0x3d
 8001288:	62e5      	str	r5, [r4, #44]	; 0x2c
 800128a:	f7ff f9bb 	bl	8000604 <vListInitialiseItem>
 800128e:	f104 0018 	add.w	r0, r4, #24
 8001292:	f7ff f9b7 	bl	8000604 <vListInitialiseItem>
 8001296:	2305      	movs	r3, #5
 8001298:	f506 7001 	add.w	r0, r6, #516	; 0x204
 800129c:	462a      	mov	r2, r5
 800129e:	494f      	ldr	r1, [pc, #316]	; (80013dc <vTaskStartScheduler+0x19c>)
 80012a0:	61a3      	str	r3, [r4, #24]
 80012a2:	f020 0007 	bic.w	r0, r0, #7
 80012a6:	6525      	str	r5, [r4, #80]	; 0x50
 80012a8:	f884 5054 	strb.w	r5, [r4, #84]	; 0x54
 80012ac:	6124      	str	r4, [r4, #16]
 80012ae:	6264      	str	r4, [r4, #36]	; 0x24
 80012b0:	f7ff f8bc 	bl	800042c <pxPortInitialiseStack>
 80012b4:	4b4a      	ldr	r3, [pc, #296]	; (80013e0 <vTaskStartScheduler+0x1a0>)
 80012b6:	6020      	str	r0, [r4, #0]
 80012b8:	601c      	str	r4, [r3, #0]
 80012ba:	f7ff f8e3 	bl	8000484 <vPortEnterCritical>
 80012be:	4a49      	ldr	r2, [pc, #292]	; (80013e4 <vTaskStartScheduler+0x1a4>)
 80012c0:	4f49      	ldr	r7, [pc, #292]	; (80013e8 <vTaskStartScheduler+0x1a8>)
 80012c2:	6813      	ldr	r3, [r2, #0]
 80012c4:	3301      	adds	r3, #1
 80012c6:	6013      	str	r3, [r2, #0]
 80012c8:	683b      	ldr	r3, [r7, #0]
 80012ca:	2b00      	cmp	r3, #0
 80012cc:	d054      	beq.n	8001378 <vTaskStartScheduler+0x138>
 80012ce:	4d47      	ldr	r5, [pc, #284]	; (80013ec <vTaskStartScheduler+0x1ac>)
 80012d0:	682b      	ldr	r3, [r5, #0]
 80012d2:	2b00      	cmp	r3, #0
 80012d4:	d049      	beq.n	800136a <vTaskStartScheduler+0x12a>
 80012d6:	6ae3      	ldr	r3, [r4, #44]	; 0x2c
 80012d8:	4a45      	ldr	r2, [pc, #276]	; (80013f0 <vTaskStartScheduler+0x1b0>)
 80012da:	f8df c154 	ldr.w	ip, [pc, #340]	; 8001430 <vTaskStartScheduler+0x1f0>
 80012de:	6816      	ldr	r6, [r2, #0]
 80012e0:	f8dc e000 	ldr.w	lr, [ip]
 80012e4:	4843      	ldr	r0, [pc, #268]	; (80013f4 <vTaskStartScheduler+0x1b4>)
 80012e6:	3601      	adds	r6, #1
 80012e8:	6016      	str	r6, [r2, #0]
 80012ea:	2201      	movs	r2, #1
 80012ec:	409a      	lsls	r2, r3
 80012ee:	eb03 0383 	add.w	r3, r3, r3, lsl #2
 80012f2:	ea42 020e 	orr.w	r2, r2, lr
 80012f6:	eb00 0083 	add.w	r0, r0, r3, lsl #2
 80012fa:	4641      	mov	r1, r8
 80012fc:	6426      	str	r6, [r4, #64]	; 0x40
 80012fe:	f8cc 2000 	str.w	r2, [ip]
 8001302:	f7ff f983 	bl	800060c <vListInsertEnd>
 8001306:	f7ff f8cd 	bl	80004a4 <vPortExitCritical>
 800130a:	682b      	ldr	r3, [r5, #0]
 800130c:	b163      	cbz	r3, 8001328 <vTaskStartScheduler+0xe8>
 800130e:	683a      	ldr	r2, [r7, #0]
 8001310:	6ae3      	ldr	r3, [r4, #44]	; 0x2c
 8001312:	6ad2      	ldr	r2, [r2, #44]	; 0x2c
 8001314:	429a      	cmp	r2, r3
 8001316:	d207      	bcs.n	8001328 <vTaskStartScheduler+0xe8>
 8001318:	4b37      	ldr	r3, [pc, #220]	; (80013f8 <vTaskStartScheduler+0x1b8>)
 800131a:	f04f 5280 	mov.w	r2, #268435456	; 0x10000000
 800131e:	601a      	str	r2, [r3, #0]
 8001320:	f3bf 8f4f 	dsb	sy
 8001324:	f3bf 8f6f 	isb	sy
 8001328:	f000 fc84 	bl	8001c34 <xTimerCreateTimerTask>
 800132c:	2801      	cmp	r0, #1
 800132e:	d111      	bne.n	8001354 <vTaskStartScheduler+0x114>
 8001330:	f04f 0350 	mov.w	r3, #80	; 0x50
 8001334:	f383 8811 	msr	BASEPRI, r3
 8001338:	f3bf 8f6f 	isb	sy
 800133c:	f3bf 8f4f 	dsb	sy
 8001340:	492e      	ldr	r1, [pc, #184]	; (80013fc <vTaskStartScheduler+0x1bc>)
 8001342:	4b2f      	ldr	r3, [pc, #188]	; (8001400 <vTaskStartScheduler+0x1c0>)
 8001344:	f04f 34ff 	mov.w	r4, #4294967295
 8001348:	2200      	movs	r2, #0
 800134a:	600c      	str	r4, [r1, #0]
 800134c:	6028      	str	r0, [r5, #0]
 800134e:	601a      	str	r2, [r3, #0]
 8001350:	f7ff f91c 	bl	800058c <xPortStartScheduler>
 8001354:	4b2b      	ldr	r3, [pc, #172]	; (8001404 <vTaskStartScheduler+0x1c4>)
 8001356:	681b      	ldr	r3, [r3, #0]
 8001358:	e8bd 83f8 	ldmia.w	sp!, {r3, r4, r5, r6, r7, r8, r9, pc}
 800135c:	4628      	mov	r0, r5
 800135e:	f7fe ffe9 	bl	8000334 <vPortFree>
 8001362:	4b28      	ldr	r3, [pc, #160]	; (8001404 <vTaskStartScheduler+0x1c4>)
 8001364:	681b      	ldr	r3, [r3, #0]
 8001366:	e8bd 83f8 	ldmia.w	sp!, {r3, r4, r5, r6, r7, r8, r9, pc}
 800136a:	683a      	ldr	r2, [r7, #0]
 800136c:	6ae3      	ldr	r3, [r4, #44]	; 0x2c
 800136e:	6ad2      	ldr	r2, [r2, #44]	; 0x2c
 8001370:	429a      	cmp	r2, r3
 8001372:	bf98      	it	ls
 8001374:	603c      	strls	r4, [r7, #0]
 8001376:	e7af      	b.n	80012d8 <vTaskStartScheduler+0x98>
 8001378:	603c      	str	r4, [r7, #0]
 800137a:	6813      	ldr	r3, [r2, #0]
 800137c:	2b01      	cmp	r3, #1
 800137e:	d002      	beq.n	8001386 <vTaskStartScheduler+0x146>
 8001380:	6ae3      	ldr	r3, [r4, #44]	; 0x2c
 8001382:	4d1a      	ldr	r5, [pc, #104]	; (80013ec <vTaskStartScheduler+0x1ac>)
 8001384:	e7a8      	b.n	80012d8 <vTaskStartScheduler+0x98>
 8001386:	481b      	ldr	r0, [pc, #108]	; (80013f4 <vTaskStartScheduler+0x1b4>)
 8001388:	f8df 90a8 	ldr.w	r9, [pc, #168]	; 8001434 <vTaskStartScheduler+0x1f4>
 800138c:	4e1e      	ldr	r6, [pc, #120]	; (8001408 <vTaskStartScheduler+0x1c8>)
 800138e:	4d17      	ldr	r5, [pc, #92]	; (80013ec <vTaskStartScheduler+0x1ac>)
 8001390:	f7ff f92c 	bl	80005ec <vListInitialise>
 8001394:	481d      	ldr	r0, [pc, #116]	; (800140c <vTaskStartScheduler+0x1cc>)
 8001396:	f7ff f929 	bl	80005ec <vListInitialise>
 800139a:	481d      	ldr	r0, [pc, #116]	; (8001410 <vTaskStartScheduler+0x1d0>)
 800139c:	f7ff f926 	bl	80005ec <vListInitialise>
 80013a0:	481c      	ldr	r0, [pc, #112]	; (8001414 <vTaskStartScheduler+0x1d4>)
 80013a2:	f7ff f923 	bl	80005ec <vListInitialise>
 80013a6:	481c      	ldr	r0, [pc, #112]	; (8001418 <vTaskStartScheduler+0x1d8>)
 80013a8:	f7ff f920 	bl	80005ec <vListInitialise>
 80013ac:	4648      	mov	r0, r9
 80013ae:	f7ff f91d 	bl	80005ec <vListInitialise>
 80013b2:	4630      	mov	r0, r6
 80013b4:	f7ff f91a 	bl	80005ec <vListInitialise>
 80013b8:	4818      	ldr	r0, [pc, #96]	; (800141c <vTaskStartScheduler+0x1dc>)
 80013ba:	f7ff f917 	bl	80005ec <vListInitialise>
 80013be:	4818      	ldr	r0, [pc, #96]	; (8001420 <vTaskStartScheduler+0x1e0>)
 80013c0:	f7ff f914 	bl	80005ec <vListInitialise>
 80013c4:	4817      	ldr	r0, [pc, #92]	; (8001424 <vTaskStartScheduler+0x1e4>)
 80013c6:	f7ff f911 	bl	80005ec <vListInitialise>
 80013ca:	4b17      	ldr	r3, [pc, #92]	; (8001428 <vTaskStartScheduler+0x1e8>)
 80013cc:	4a17      	ldr	r2, [pc, #92]	; (800142c <vTaskStartScheduler+0x1ec>)
 80013ce:	f8c2 9000 	str.w	r9, [r2]
 80013d2:	601e      	str	r6, [r3, #0]
 80013d4:	6ae3      	ldr	r3, [r4, #44]	; 0x2c
 80013d6:	e77f      	b.n	80012d8 <vTaskStartScheduler+0x98>
 80013d8:	454c4449 	strbmi	r4, [ip, #-1097]	; 0xfffffbb7
 80013dc:	08000e1d 	stmdaeq	r0, {r0, r2, r3, r4, r9, sl, fp}
 80013e0:	20012d04 	andcs	r2, r1, r4, lsl #26
 80013e4:	20012cc8 	andcs	r2, r1, r8, asr #25
 80013e8:	20012c58 	andcs	r2, r1, r8, asr ip
 80013ec:	20012d28 	andcs	r2, r1, r8, lsr #26
 80013f0:	20012cd4 	ldrdcs	r2, [r1], -r4
 80013f4:	20012c64 	andcs	r2, r1, r4, ror #24
 80013f8:	e000ed04 	and	lr, r0, r4, lsl #26
 80013fc:	20012d08 	andcs	r2, r1, r8, lsl #26
 8001400:	20012d54 	andcs	r2, r1, r4, asr sp
 8001404:	20000004 	andcs	r0, r0, r4
 8001408:	20012cf0 	strdcs	r2, [r1], -r0
 800140c:	20012c78 	andcs	r2, r1, r8, ror ip
 8001410:	20012c8c 	andcs	r2, r1, ip, lsl #25
 8001414:	20012ca0 	andcs	r2, r1, r0, lsr #25
 8001418:	20012cb4 			; <UNDEFINED> instruction: 0x20012cb4
 800141c:	20012d14 	andcs	r2, r1, r4, lsl sp
 8001420:	20012d40 	andcs	r2, r1, r0, asr #26
 8001424:	20012d2c 	andcs	r2, r1, ip, lsr #26
 8001428:	20012c60 	andcs	r2, r1, r0, ror #24
 800142c:	20012c5c 	andcs	r2, r1, ip, asr ip
 8001430:	20012cd8 	ldrdcs	r2, [r1], -r8
 8001434:	20012cdc 	ldrdcs	r2, [r1], -ip

08001438 <vTaskSuspendAll>:
 8001438:	4a02      	ldr	r2, [pc, #8]	; (8001444 <vTaskSuspendAll+0xc>)
 800143a:	6813      	ldr	r3, [r2, #0]
 800143c:	3301      	adds	r3, #1
 800143e:	6013      	str	r3, [r2, #0]
 8001440:	4770      	bx	lr
 8001442:	bf00      	nop
 8001444:	20012cd0 	ldrdcs	r2, [r1], -r0

08001448 <xTaskResumeAll>:
 8001448:	e92d 4ff0 	stmdb	sp!, {r4, r5, r6, r7, r8, r9, sl, fp, lr}
 800144c:	4d43      	ldr	r5, [pc, #268]	; (800155c <xTaskResumeAll+0x114>)
 800144e:	b083      	sub	sp, #12
 8001450:	f7ff f818 	bl	8000484 <vPortEnterCritical>
 8001454:	682b      	ldr	r3, [r5, #0]
 8001456:	3b01      	subs	r3, #1
 8001458:	602b      	str	r3, [r5, #0]
 800145a:	682b      	ldr	r3, [r5, #0]
 800145c:	2b00      	cmp	r3, #0
 800145e:	d163      	bne.n	8001528 <xTaskResumeAll+0xe0>
 8001460:	4b3f      	ldr	r3, [pc, #252]	; (8001560 <xTaskResumeAll+0x118>)
 8001462:	681b      	ldr	r3, [r3, #0]
 8001464:	2b00      	cmp	r3, #0
 8001466:	d05f      	beq.n	8001528 <xTaskResumeAll+0xe0>
 8001468:	f8df b110 	ldr.w	fp, [pc, #272]	; 800157c <xTaskResumeAll+0x134>
 800146c:	f8db 3000 	ldr.w	r3, [fp]
 8001470:	2b00      	cmp	r3, #0
 8001472:	d06f      	beq.n	8001554 <xTaskResumeAll+0x10c>
 8001474:	4b3b      	ldr	r3, [pc, #236]	; (8001564 <xTaskResumeAll+0x11c>)
 8001476:	4e3c      	ldr	r6, [pc, #240]	; (8001568 <xTaskResumeAll+0x120>)
 8001478:	f8df 9104 	ldr.w	r9, [pc, #260]	; 8001580 <xTaskResumeAll+0x138>
 800147c:	f8df 8104 	ldr.w	r8, [pc, #260]	; 8001584 <xTaskResumeAll+0x13c>
 8001480:	9301      	str	r3, [sp, #4]
 8001482:	2701      	movs	r7, #1
 8001484:	f8db 300c 	ldr.w	r3, [fp, #12]
 8001488:	68dc      	ldr	r4, [r3, #12]
 800148a:	f104 0a04 	add.w	sl, r4, #4
 800148e:	f104 0018 	add.w	r0, r4, #24
 8001492:	f7ff f8e3 	bl	800065c <uxListRemove>
 8001496:	4650      	mov	r0, sl
 8001498:	f7ff f8e0 	bl	800065c <uxListRemove>
 800149c:	6ae0      	ldr	r0, [r4, #44]	; 0x2c
 800149e:	6832      	ldr	r2, [r6, #0]
 80014a0:	fa07 f300 	lsl.w	r3, r7, r0
 80014a4:	eb00 0080 	add.w	r0, r0, r0, lsl #2
 80014a8:	4313      	orrs	r3, r2
 80014aa:	4651      	mov	r1, sl
 80014ac:	eb09 0080 	add.w	r0, r9, r0, lsl #2
 80014b0:	6033      	str	r3, [r6, #0]
 80014b2:	f7ff f8ab 	bl	800060c <vListInsertEnd>
 80014b6:	f8d8 3000 	ldr.w	r3, [r8]
 80014ba:	6ae2      	ldr	r2, [r4, #44]	; 0x2c
 80014bc:	6adb      	ldr	r3, [r3, #44]	; 0x2c
 80014be:	429a      	cmp	r2, r3
 80014c0:	d33a      	bcc.n	8001538 <xTaskResumeAll+0xf0>
 80014c2:	9b01      	ldr	r3, [sp, #4]
 80014c4:	601f      	str	r7, [r3, #0]
 80014c6:	f8db 3000 	ldr.w	r3, [fp]
 80014ca:	2b00      	cmp	r3, #0
 80014cc:	d1da      	bne.n	8001484 <xTaskResumeAll+0x3c>
 80014ce:	4b27      	ldr	r3, [pc, #156]	; (800156c <xTaskResumeAll+0x124>)
 80014d0:	681a      	ldr	r2, [r3, #0]
 80014d2:	6812      	ldr	r2, [r2, #0]
 80014d4:	2a00      	cmp	r2, #0
 80014d6:	d038      	beq.n	800154a <xTaskResumeAll+0x102>
 80014d8:	681a      	ldr	r2, [r3, #0]
 80014da:	4b25      	ldr	r3, [pc, #148]	; (8001570 <xTaskResumeAll+0x128>)
 80014dc:	68d2      	ldr	r2, [r2, #12]
 80014de:	6812      	ldr	r2, [r2, #0]
 80014e0:	601a      	str	r2, [r3, #0]
 80014e2:	4e24      	ldr	r6, [pc, #144]	; (8001574 <xTaskResumeAll+0x12c>)
 80014e4:	6834      	ldr	r4, [r6, #0]
 80014e6:	b194      	cbz	r4, 800150e <xTaskResumeAll+0xc6>
 80014e8:	2701      	movs	r7, #1
 80014ea:	e006      	b.n	80014fa <xTaskResumeAll+0xb2>
 80014ec:	f7ff fcce 	bl	8000e8c <xTaskIncrementTick.part.0>
 80014f0:	b108      	cbz	r0, 80014f6 <xTaskResumeAll+0xae>
 80014f2:	9b01      	ldr	r3, [sp, #4]
 80014f4:	601f      	str	r7, [r3, #0]
 80014f6:	3c01      	subs	r4, #1
 80014f8:	d008      	beq.n	800150c <xTaskResumeAll+0xc4>
 80014fa:	682b      	ldr	r3, [r5, #0]
 80014fc:	2b00      	cmp	r3, #0
 80014fe:	d0f5      	beq.n	80014ec <xTaskResumeAll+0xa4>
 8001500:	6833      	ldr	r3, [r6, #0]
 8001502:	3c01      	subs	r4, #1
 8001504:	f103 0301 	add.w	r3, r3, #1
 8001508:	6033      	str	r3, [r6, #0]
 800150a:	d1f6      	bne.n	80014fa <xTaskResumeAll+0xb2>
 800150c:	6034      	str	r4, [r6, #0]
 800150e:	9b01      	ldr	r3, [sp, #4]
 8001510:	681b      	ldr	r3, [r3, #0]
 8001512:	b14b      	cbz	r3, 8001528 <xTaskResumeAll+0xe0>
 8001514:	4b18      	ldr	r3, [pc, #96]	; (8001578 <xTaskResumeAll+0x130>)
 8001516:	f04f 5280 	mov.w	r2, #268435456	; 0x10000000
 800151a:	601a      	str	r2, [r3, #0]
 800151c:	f3bf 8f4f 	dsb	sy
 8001520:	f3bf 8f6f 	isb	sy
 8001524:	2001      	movs	r0, #1
 8001526:	e000      	b.n	800152a <xTaskResumeAll+0xe2>
 8001528:	2000      	movs	r0, #0
 800152a:	9001      	str	r0, [sp, #4]
 800152c:	f7fe ffba 	bl	80004a4 <vPortExitCritical>
 8001530:	9801      	ldr	r0, [sp, #4]
 8001532:	b003      	add	sp, #12
 8001534:	e8bd 8ff0 	ldmia.w	sp!, {r4, r5, r6, r7, r8, r9, sl, fp, pc}
 8001538:	f8db 3000 	ldr.w	r3, [fp]
 800153c:	2b00      	cmp	r3, #0
 800153e:	d1a1      	bne.n	8001484 <xTaskResumeAll+0x3c>
 8001540:	4b0a      	ldr	r3, [pc, #40]	; (800156c <xTaskResumeAll+0x124>)
 8001542:	681a      	ldr	r2, [r3, #0]
 8001544:	6812      	ldr	r2, [r2, #0]
 8001546:	2a00      	cmp	r2, #0
 8001548:	d1c6      	bne.n	80014d8 <xTaskResumeAll+0x90>
 800154a:	4b09      	ldr	r3, [pc, #36]	; (8001570 <xTaskResumeAll+0x128>)
 800154c:	f04f 32ff 	mov.w	r2, #4294967295
 8001550:	601a      	str	r2, [r3, #0]
 8001552:	e7c6      	b.n	80014e2 <xTaskResumeAll+0x9a>
 8001554:	4b03      	ldr	r3, [pc, #12]	; (8001564 <xTaskResumeAll+0x11c>)
 8001556:	9301      	str	r3, [sp, #4]
 8001558:	e7c3      	b.n	80014e2 <xTaskResumeAll+0x9a>
 800155a:	bf00      	nop
 800155c:	20012cd0 	ldrdcs	r2, [r1], -r0
 8001560:	20012cc8 	andcs	r2, r1, r8, asr #25
 8001564:	20012d58 	andcs	r2, r1, r8, asr sp
 8001568:	20012cd8 	ldrdcs	r2, [r1], -r8
 800156c:	20012c5c 	andcs	r2, r1, ip, asr ip
 8001570:	20012d08 	andcs	r2, r1, r8, lsl #26
 8001574:	20012d10 	andcs	r2, r1, r0, lsl sp
 8001578:	e000ed04 	and	lr, r0, r4, lsl #26
 800157c:	20012d14 	andcs	r2, r1, r4, lsl sp
 8001580:	20012c64 	andcs	r2, r1, r4, ror #24
 8001584:	20012c58 	andcs	r2, r1, r8, asr ip

08001588 <vTaskDelay>:
 8001588:	b570      	push	{r4, r5, r6, lr}
 800158a:	b940      	cbnz	r0, 800159e <vTaskDelay+0x16>
 800158c:	4b1c      	ldr	r3, [pc, #112]	; (8001600 <vTaskDelay+0x78>)
 800158e:	f04f 5280 	mov.w	r2, #268435456	; 0x10000000
 8001592:	601a      	str	r2, [r3, #0]
 8001594:	f3bf 8f4f 	dsb	sy
 8001598:	f3bf 8f6f 	isb	sy
 800159c:	bd70      	pop	{r4, r5, r6, pc}
 800159e:	4a19      	ldr	r2, [pc, #100]	; (8001604 <vTaskDelay+0x7c>)
 80015a0:	6813      	ldr	r3, [r2, #0]
 80015a2:	3301      	adds	r3, #1
 80015a4:	4604      	mov	r4, r0
 80015a6:	6013      	str	r3, [r2, #0]
 80015a8:	4b17      	ldr	r3, [pc, #92]	; (8001608 <vTaskDelay+0x80>)
 80015aa:	4d18      	ldr	r5, [pc, #96]	; (800160c <vTaskDelay+0x84>)
 80015ac:	681e      	ldr	r6, [r3, #0]
 80015ae:	6828      	ldr	r0, [r5, #0]
 80015b0:	3004      	adds	r0, #4
 80015b2:	f7ff f853 	bl	800065c <uxListRemove>
 80015b6:	b940      	cbnz	r0, 80015ca <vTaskDelay+0x42>
 80015b8:	682b      	ldr	r3, [r5, #0]
 80015ba:	4915      	ldr	r1, [pc, #84]	; (8001610 <vTaskDelay+0x88>)
 80015bc:	6ad8      	ldr	r0, [r3, #44]	; 0x2c
 80015be:	680b      	ldr	r3, [r1, #0]
 80015c0:	2201      	movs	r2, #1
 80015c2:	4082      	lsls	r2, r0
 80015c4:	ea23 0302 	bic.w	r3, r3, r2
 80015c8:	600b      	str	r3, [r1, #0]
 80015ca:	682b      	ldr	r3, [r5, #0]
 80015cc:	19a4      	adds	r4, r4, r6
 80015ce:	605c      	str	r4, [r3, #4]
 80015d0:	d20f      	bcs.n	80015f2 <vTaskDelay+0x6a>
 80015d2:	4b10      	ldr	r3, [pc, #64]	; (8001614 <vTaskDelay+0x8c>)
 80015d4:	6818      	ldr	r0, [r3, #0]
 80015d6:	6829      	ldr	r1, [r5, #0]
 80015d8:	3104      	adds	r1, #4
 80015da:	f7ff f827 	bl	800062c <vListInsert>
 80015de:	4b0e      	ldr	r3, [pc, #56]	; (8001618 <vTaskDelay+0x90>)
 80015e0:	681a      	ldr	r2, [r3, #0]
 80015e2:	4294      	cmp	r4, r2
 80015e4:	bf38      	it	cc
 80015e6:	601c      	strcc	r4, [r3, #0]
 80015e8:	f7ff ff2e 	bl	8001448 <xTaskResumeAll>
 80015ec:	2800      	cmp	r0, #0
 80015ee:	d0cd      	beq.n	800158c <vTaskDelay+0x4>
 80015f0:	bd70      	pop	{r4, r5, r6, pc}
 80015f2:	4b0a      	ldr	r3, [pc, #40]	; (800161c <vTaskDelay+0x94>)
 80015f4:	6818      	ldr	r0, [r3, #0]
 80015f6:	6829      	ldr	r1, [r5, #0]
 80015f8:	3104      	adds	r1, #4
 80015fa:	f7ff f817 	bl	800062c <vListInsert>
 80015fe:	e7f3      	b.n	80015e8 <vTaskDelay+0x60>
 8001600:	e000ed04 	and	lr, r0, r4, lsl #26
 8001604:	20012cd0 	ldrdcs	r2, [r1], -r0
 8001608:	20012d54 	andcs	r2, r1, r4, asr sp
 800160c:	20012c58 	andcs	r2, r1, r8, asr ip
 8001610:	20012cd8 	ldrdcs	r2, [r1], -r8
 8001614:	20012c5c 	andcs	r2, r1, ip, asr ip
 8001618:	20012d08 	andcs	r2, r1, r8, lsl #26
 800161c:	20012c60 	andcs	r2, r1, r0, ror #24

08001620 <xTaskGetTickCount>:
 8001620:	4b01      	ldr	r3, [pc, #4]	; (8001628 <xTaskGetTickCount+0x8>)
 8001622:	6818      	ldr	r0, [r3, #0]
 8001624:	4770      	bx	lr
 8001626:	bf00      	nop
 8001628:	20012d54 	andcs	r2, r1, r4, asr sp

0800162c <xTaskIncrementTick>:
 800162c:	4b05      	ldr	r3, [pc, #20]	; (8001644 <xTaskIncrementTick+0x18>)
 800162e:	681b      	ldr	r3, [r3, #0]
 8001630:	b90b      	cbnz	r3, 8001636 <xTaskIncrementTick+0xa>
 8001632:	f7ff bc2b 	b.w	8000e8c <xTaskIncrementTick.part.0>
 8001636:	4a04      	ldr	r2, [pc, #16]	; (8001648 <xTaskIncrementTick+0x1c>)
 8001638:	6813      	ldr	r3, [r2, #0]
 800163a:	3301      	adds	r3, #1
 800163c:	6013      	str	r3, [r2, #0]
 800163e:	2000      	movs	r0, #0
 8001640:	4770      	bx	lr
 8001642:	bf00      	nop
 8001644:	20012cd0 	ldrdcs	r2, [r1], -r0
 8001648:	20012d10 	andcs	r2, r1, r0, lsl sp

0800164c <vTaskSwitchContext>:
 800164c:	4b11      	ldr	r3, [pc, #68]	; (8001694 <vTaskSwitchContext+0x48>)
 800164e:	681b      	ldr	r3, [r3, #0]
 8001650:	b11b      	cbz	r3, 800165a <vTaskSwitchContext+0xe>
 8001652:	4b11      	ldr	r3, [pc, #68]	; (8001698 <vTaskSwitchContext+0x4c>)
 8001654:	2201      	movs	r2, #1
 8001656:	601a      	str	r2, [r3, #0]
 8001658:	4770      	bx	lr
 800165a:	490f      	ldr	r1, [pc, #60]	; (8001698 <vTaskSwitchContext+0x4c>)
 800165c:	4a0f      	ldr	r2, [pc, #60]	; (800169c <vTaskSwitchContext+0x50>)
 800165e:	600b      	str	r3, [r1, #0]
 8001660:	6813      	ldr	r3, [r2, #0]
 8001662:	fab3 f383 	clz	r3, r3
 8001666:	b2db      	uxtb	r3, r3
 8001668:	4a0d      	ldr	r2, [pc, #52]	; (80016a0 <vTaskSwitchContext+0x54>)
 800166a:	f1c3 031f 	rsb	r3, r3, #31
 800166e:	eb03 0383 	add.w	r3, r3, r3, lsl #2
 8001672:	eb02 0183 	add.w	r1, r2, r3, lsl #2
 8001676:	460b      	mov	r3, r1
 8001678:	684a      	ldr	r2, [r1, #4]
 800167a:	6852      	ldr	r2, [r2, #4]
 800167c:	604a      	str	r2, [r1, #4]
 800167e:	3308      	adds	r3, #8
 8001680:	429a      	cmp	r2, r3
 8001682:	bf08      	it	eq
 8001684:	6852      	ldreq	r2, [r2, #4]
 8001686:	4b07      	ldr	r3, [pc, #28]	; (80016a4 <vTaskSwitchContext+0x58>)
 8001688:	bf08      	it	eq
 800168a:	604a      	streq	r2, [r1, #4]
 800168c:	68d2      	ldr	r2, [r2, #12]
 800168e:	601a      	str	r2, [r3, #0]
 8001690:	4770      	bx	lr
 8001692:	bf00      	nop
 8001694:	20012cd0 	ldrdcs	r2, [r1], -r0
 8001698:	20012d58 	andcs	r2, r1, r8, asr sp
 800169c:	20012cd8 	ldrdcs	r2, [r1], -r8
 80016a0:	20012c64 	andcs	r2, r1, r4, ror #24
 80016a4:	20012c58 	andcs	r2, r1, r8, asr ip

080016a8 <vTaskPlaceOnEventList>:
 80016a8:	b570      	push	{r4, r5, r6, lr}
 80016aa:	4d1c      	ldr	r5, [pc, #112]	; (800171c <vTaskPlaceOnEventList+0x74>)
 80016ac:	682b      	ldr	r3, [r5, #0]
 80016ae:	460c      	mov	r4, r1
 80016b0:	f103 0118 	add.w	r1, r3, #24
 80016b4:	f7fe ffba 	bl	800062c <vListInsert>
 80016b8:	4b19      	ldr	r3, [pc, #100]	; (8001720 <vTaskPlaceOnEventList+0x78>)
 80016ba:	681e      	ldr	r6, [r3, #0]
 80016bc:	6828      	ldr	r0, [r5, #0]
 80016be:	3004      	adds	r0, #4
 80016c0:	f7fe ffcc 	bl	800065c <uxListRemove>
 80016c4:	b940      	cbnz	r0, 80016d8 <vTaskPlaceOnEventList+0x30>
 80016c6:	682b      	ldr	r3, [r5, #0]
 80016c8:	4916      	ldr	r1, [pc, #88]	; (8001724 <vTaskPlaceOnEventList+0x7c>)
 80016ca:	6ad8      	ldr	r0, [r3, #44]	; 0x2c
 80016cc:	680b      	ldr	r3, [r1, #0]
 80016ce:	2201      	movs	r2, #1
 80016d0:	4082      	lsls	r2, r0
 80016d2:	ea23 0302 	bic.w	r3, r3, r2
 80016d6:	600b      	str	r3, [r1, #0]
 80016d8:	1c63      	adds	r3, r4, #1
 80016da:	d017      	beq.n	800170c <vTaskPlaceOnEventList+0x64>
 80016dc:	682b      	ldr	r3, [r5, #0]
 80016de:	19a4      	adds	r4, r4, r6
 80016e0:	605c      	str	r4, [r3, #4]
 80016e2:	d307      	bcc.n	80016f4 <vTaskPlaceOnEventList+0x4c>
 80016e4:	4b10      	ldr	r3, [pc, #64]	; (8001728 <vTaskPlaceOnEventList+0x80>)
 80016e6:	6818      	ldr	r0, [r3, #0]
 80016e8:	6829      	ldr	r1, [r5, #0]
 80016ea:	e8bd 4070 	ldmia.w	sp!, {r4, r5, r6, lr}
 80016ee:	3104      	adds	r1, #4
 80016f0:	f7fe bf9c 	b.w	800062c <vListInsert>
 80016f4:	4b0d      	ldr	r3, [pc, #52]	; (800172c <vTaskPlaceOnEventList+0x84>)
 80016f6:	6818      	ldr	r0, [r3, #0]
 80016f8:	6829      	ldr	r1, [r5, #0]
 80016fa:	3104      	adds	r1, #4
 80016fc:	f7fe ff96 	bl	800062c <vListInsert>
 8001700:	4b0b      	ldr	r3, [pc, #44]	; (8001730 <vTaskPlaceOnEventList+0x88>)
 8001702:	681a      	ldr	r2, [r3, #0]
 8001704:	4294      	cmp	r4, r2
 8001706:	bf38      	it	cc
 8001708:	601c      	strcc	r4, [r3, #0]
 800170a:	bd70      	pop	{r4, r5, r6, pc}
 800170c:	6829      	ldr	r1, [r5, #0]
 800170e:	4809      	ldr	r0, [pc, #36]	; (8001734 <vTaskPlaceOnEventList+0x8c>)
 8001710:	e8bd 4070 	ldmia.w	sp!, {r4, r5, r6, lr}
 8001714:	3104      	adds	r1, #4
 8001716:	f7fe bf79 	b.w	800060c <vListInsertEnd>
 800171a:	bf00      	nop
 800171c:	20012c58 	andcs	r2, r1, r8, asr ip
 8001720:	20012d54 	andcs	r2, r1, r4, asr sp
 8001724:	20012cd8 	ldrdcs	r2, [r1], -r8
 8001728:	20012c60 	andcs	r2, r1, r0, ror #24
 800172c:	20012c5c 	andcs	r2, r1, ip, asr ip
 8001730:	20012d08 	andcs	r2, r1, r8, lsl #26
 8001734:	20012d2c 	andcs	r2, r1, ip, lsr #26

08001738 <vTaskPlaceOnEventListRestricted>:
 8001738:	b5f8      	push	{r3, r4, r5, r6, r7, lr}
 800173a:	4d21      	ldr	r5, [pc, #132]	; (80017c0 <vTaskPlaceOnEventListRestricted+0x88>)
 800173c:	682b      	ldr	r3, [r5, #0]
 800173e:	460c      	mov	r4, r1
 8001740:	f103 0118 	add.w	r1, r3, #24
 8001744:	4616      	mov	r6, r2
 8001746:	f7fe ff61 	bl	800060c <vListInsertEnd>
 800174a:	4b1e      	ldr	r3, [pc, #120]	; (80017c4 <vTaskPlaceOnEventListRestricted+0x8c>)
 800174c:	681f      	ldr	r7, [r3, #0]
 800174e:	6828      	ldr	r0, [r5, #0]
 8001750:	3004      	adds	r0, #4
 8001752:	b9ee      	cbnz	r6, 8001790 <vTaskPlaceOnEventListRestricted+0x58>
 8001754:	f7fe ff82 	bl	800065c <uxListRemove>
 8001758:	b950      	cbnz	r0, 8001770 <vTaskPlaceOnEventListRestricted+0x38>
 800175a:	682b      	ldr	r3, [r5, #0]
 800175c:	491a      	ldr	r1, [pc, #104]	; (80017c8 <vTaskPlaceOnEventListRestricted+0x90>)
 800175e:	6ad8      	ldr	r0, [r3, #44]	; 0x2c
 8001760:	680b      	ldr	r3, [r1, #0]
 8001762:	2201      	movs	r2, #1
 8001764:	4082      	lsls	r2, r0
 8001766:	ea23 0302 	bic.w	r3, r3, r2
 800176a:	600b      	str	r3, [r1, #0]
 800176c:	1c63      	adds	r3, r4, #1
 800176e:	d01d      	beq.n	80017ac <vTaskPlaceOnEventListRestricted+0x74>
 8001770:	682b      	ldr	r3, [r5, #0]
 8001772:	193c      	adds	r4, r7, r4
 8001774:	605c      	str	r4, [r3, #4]
 8001776:	d211      	bcs.n	800179c <vTaskPlaceOnEventListRestricted+0x64>
 8001778:	4b14      	ldr	r3, [pc, #80]	; (80017cc <vTaskPlaceOnEventListRestricted+0x94>)
 800177a:	6818      	ldr	r0, [r3, #0]
 800177c:	6829      	ldr	r1, [r5, #0]
 800177e:	3104      	adds	r1, #4
 8001780:	f7fe ff54 	bl	800062c <vListInsert>
 8001784:	4b12      	ldr	r3, [pc, #72]	; (80017d0 <vTaskPlaceOnEventListRestricted+0x98>)
 8001786:	681a      	ldr	r2, [r3, #0]
 8001788:	4294      	cmp	r4, r2
 800178a:	d200      	bcs.n	800178e <vTaskPlaceOnEventListRestricted+0x56>
 800178c:	601c      	str	r4, [r3, #0]
 800178e:	bdf8      	pop	{r3, r4, r5, r6, r7, pc}
 8001790:	f7fe ff64 	bl	800065c <uxListRemove>
 8001794:	b960      	cbnz	r0, 80017b0 <vTaskPlaceOnEventListRestricted+0x78>
 8001796:	f04f 34ff 	mov.w	r4, #4294967295
 800179a:	e7de      	b.n	800175a <vTaskPlaceOnEventListRestricted+0x22>
 800179c:	4b0d      	ldr	r3, [pc, #52]	; (80017d4 <vTaskPlaceOnEventListRestricted+0x9c>)
 800179e:	6818      	ldr	r0, [r3, #0]
 80017a0:	6829      	ldr	r1, [r5, #0]
 80017a2:	e8bd 40f8 	ldmia.w	sp!, {r3, r4, r5, r6, r7, lr}
 80017a6:	3104      	adds	r1, #4
 80017a8:	f7fe bf40 	b.w	800062c <vListInsert>
 80017ac:	2e00      	cmp	r6, #0
 80017ae:	d0df      	beq.n	8001770 <vTaskPlaceOnEventListRestricted+0x38>
 80017b0:	6829      	ldr	r1, [r5, #0]
 80017b2:	4809      	ldr	r0, [pc, #36]	; (80017d8 <vTaskPlaceOnEventListRestricted+0xa0>)
 80017b4:	e8bd 40f8 	ldmia.w	sp!, {r3, r4, r5, r6, r7, lr}
 80017b8:	3104      	adds	r1, #4
 80017ba:	f7fe bf27 	b.w	800060c <vListInsertEnd>
 80017be:	bf00      	nop
 80017c0:	20012c58 	andcs	r2, r1, r8, asr ip
 80017c4:	20012d54 	andcs	r2, r1, r4, asr sp
 80017c8:	20012cd8 	ldrdcs	r2, [r1], -r8
 80017cc:	20012c5c 	andcs	r2, r1, ip, asr ip
 80017d0:	20012d08 	andcs	r2, r1, r8, lsl #26
 80017d4:	20012c60 	andcs	r2, r1, r0, ror #24
 80017d8:	20012d2c 	andcs	r2, r1, ip, lsr #26

080017dc <xTaskRemoveFromEventList>:
 80017dc:	b570      	push	{r4, r5, r6, lr}
 80017de:	68c3      	ldr	r3, [r0, #12]
 80017e0:	68dc      	ldr	r4, [r3, #12]
 80017e2:	f104 0518 	add.w	r5, r4, #24
 80017e6:	b082      	sub	sp, #8
 80017e8:	4628      	mov	r0, r5
 80017ea:	f7fe ff37 	bl	800065c <uxListRemove>
 80017ee:	4b14      	ldr	r3, [pc, #80]	; (8001840 <xTaskRemoveFromEventList+0x64>)
 80017f0:	681b      	ldr	r3, [r3, #0]
 80017f2:	b9fb      	cbnz	r3, 8001834 <xTaskRemoveFromEventList+0x58>
 80017f4:	1d21      	adds	r1, r4, #4
 80017f6:	4d13      	ldr	r5, [pc, #76]	; (8001844 <xTaskRemoveFromEventList+0x68>)
 80017f8:	9101      	str	r1, [sp, #4]
 80017fa:	4608      	mov	r0, r1
 80017fc:	f7fe ff2e 	bl	800065c <uxListRemove>
 8001800:	6ae2      	ldr	r2, [r4, #44]	; 0x2c
 8001802:	682e      	ldr	r6, [r5, #0]
 8001804:	4810      	ldr	r0, [pc, #64]	; (8001848 <xTaskRemoveFromEventList+0x6c>)
 8001806:	9901      	ldr	r1, [sp, #4]
 8001808:	2301      	movs	r3, #1
 800180a:	4093      	lsls	r3, r2
 800180c:	eb02 0282 	add.w	r2, r2, r2, lsl #2
 8001810:	4333      	orrs	r3, r6
 8001812:	eb00 0082 	add.w	r0, r0, r2, lsl #2
 8001816:	602b      	str	r3, [r5, #0]
 8001818:	f7fe fef8 	bl	800060c <vListInsertEnd>
 800181c:	4b0b      	ldr	r3, [pc, #44]	; (800184c <xTaskRemoveFromEventList+0x70>)
 800181e:	6ae2      	ldr	r2, [r4, #44]	; 0x2c
 8001820:	681b      	ldr	r3, [r3, #0]
 8001822:	6adb      	ldr	r3, [r3, #44]	; 0x2c
 8001824:	429a      	cmp	r2, r3
 8001826:	bf85      	ittet	hi
 8001828:	4b09      	ldrhi	r3, [pc, #36]	; (8001850 <xTaskRemoveFromEventList+0x74>)
 800182a:	2001      	movhi	r0, #1
 800182c:	2000      	movls	r0, #0
 800182e:	6018      	strhi	r0, [r3, #0]
 8001830:	b002      	add	sp, #8
 8001832:	bd70      	pop	{r4, r5, r6, pc}
 8001834:	4807      	ldr	r0, [pc, #28]	; (8001854 <xTaskRemoveFromEventList+0x78>)
 8001836:	4629      	mov	r1, r5
 8001838:	f7fe fee8 	bl	800060c <vListInsertEnd>
 800183c:	e7ee      	b.n	800181c <xTaskRemoveFromEventList+0x40>
 800183e:	bf00      	nop
 8001840:	20012cd0 	ldrdcs	r2, [r1], -r0
 8001844:	20012cd8 	ldrdcs	r2, [r1], -r8
 8001848:	20012c64 	andcs	r2, r1, r4, ror #24
 800184c:	20012c58 	andcs	r2, r1, r8, asr ip
 8001850:	20012d58 	andcs	r2, r1, r8, asr sp
 8001854:	20012d14 	andcs	r2, r1, r4, lsl sp

08001858 <vTaskInternalSetTimeOutState>:
 8001858:	4a03      	ldr	r2, [pc, #12]	; (8001868 <vTaskInternalSetTimeOutState+0x10>)
 800185a:	4b04      	ldr	r3, [pc, #16]	; (800186c <vTaskInternalSetTimeOutState+0x14>)
 800185c:	6812      	ldr	r2, [r2, #0]
 800185e:	681b      	ldr	r3, [r3, #0]
 8001860:	e9c0 2300 	strd	r2, r3, [r0]
 8001864:	4770      	bx	lr
 8001866:	bf00      	nop
 8001868:	20012d0c 	andcs	r2, r1, ip, lsl #26
 800186c:	20012d54 	andcs	r2, r1, r4, asr sp

08001870 <xTaskCheckForTimeOut>:
 8001870:	b5f0      	push	{r4, r5, r6, r7, lr}
 8001872:	460d      	mov	r5, r1
 8001874:	b083      	sub	sp, #12
 8001876:	4604      	mov	r4, r0
 8001878:	f7fe fe04 	bl	8000484 <vPortEnterCritical>
 800187c:	682b      	ldr	r3, [r5, #0]
 800187e:	4a13      	ldr	r2, [pc, #76]	; (80018cc <xTaskCheckForTimeOut+0x5c>)
 8001880:	1c59      	adds	r1, r3, #1
 8001882:	6810      	ldr	r0, [r2, #0]
 8001884:	d01f      	beq.n	80018c6 <xTaskCheckForTimeOut+0x56>
 8001886:	f8df c048 	ldr.w	ip, [pc, #72]	; 80018d0 <xTaskCheckForTimeOut+0x60>
 800188a:	e9d4 6100 	ldrd	r6, r1, [r4]
 800188e:	f8dc 7000 	ldr.w	r7, [ip]
 8001892:	42be      	cmp	r6, r7
 8001894:	d00a      	beq.n	80018ac <xTaskCheckForTimeOut+0x3c>
 8001896:	4281      	cmp	r1, r0
 8001898:	d808      	bhi.n	80018ac <xTaskCheckForTimeOut+0x3c>
 800189a:	2300      	movs	r3, #0
 800189c:	602b      	str	r3, [r5, #0]
 800189e:	2001      	movs	r0, #1
 80018a0:	9001      	str	r0, [sp, #4]
 80018a2:	f7fe fdff 	bl	80004a4 <vPortExitCritical>
 80018a6:	9801      	ldr	r0, [sp, #4]
 80018a8:	b003      	add	sp, #12
 80018aa:	bdf0      	pop	{r4, r5, r6, r7, pc}
 80018ac:	1a47      	subs	r7, r0, r1
 80018ae:	42bb      	cmp	r3, r7
 80018b0:	d9f3      	bls.n	800189a <xTaskCheckForTimeOut+0x2a>
 80018b2:	1a1b      	subs	r3, r3, r0
 80018b4:	440b      	add	r3, r1
 80018b6:	f8dc 1000 	ldr.w	r1, [ip]
 80018ba:	6812      	ldr	r2, [r2, #0]
 80018bc:	602b      	str	r3, [r5, #0]
 80018be:	2000      	movs	r0, #0
 80018c0:	e9c4 1200 	strd	r1, r2, [r4]
 80018c4:	e7ec      	b.n	80018a0 <xTaskCheckForTimeOut+0x30>
 80018c6:	2000      	movs	r0, #0
 80018c8:	e7ea      	b.n	80018a0 <xTaskCheckForTimeOut+0x30>
 80018ca:	bf00      	nop
 80018cc:	20012d54 	andcs	r2, r1, r4, asr sp
 80018d0:	20012d0c 	andcs	r2, r1, ip, lsl #26

080018d4 <vTaskMissedYield>:
 80018d4:	4b01      	ldr	r3, [pc, #4]	; (80018dc <vTaskMissedYield+0x8>)
 80018d6:	2201      	movs	r2, #1
 80018d8:	601a      	str	r2, [r3, #0]
 80018da:	4770      	bx	lr
 80018dc:	20012d58 	andcs	r2, r1, r8, asr sp

080018e0 <xTaskGetSchedulerState>:
 80018e0:	4b05      	ldr	r3, [pc, #20]	; (80018f8 <xTaskGetSchedulerState+0x18>)
 80018e2:	681b      	ldr	r3, [r3, #0]
 80018e4:	b133      	cbz	r3, 80018f4 <xTaskGetSchedulerState+0x14>
 80018e6:	4b05      	ldr	r3, [pc, #20]	; (80018fc <xTaskGetSchedulerState+0x1c>)
 80018e8:	681b      	ldr	r3, [r3, #0]
 80018ea:	2b00      	cmp	r3, #0
 80018ec:	bf0c      	ite	eq
 80018ee:	2002      	moveq	r0, #2
 80018f0:	2000      	movne	r0, #0
 80018f2:	4770      	bx	lr
 80018f4:	2001      	movs	r0, #1
 80018f6:	4770      	bx	lr
 80018f8:	20012d28 	andcs	r2, r1, r8, lsr #26
 80018fc:	20012cd0 	ldrdcs	r2, [r1], -r0

08001900 <xTaskPriorityDisinherit>:
 8001900:	b168      	cbz	r0, 800191e <xTaskPriorityDisinherit+0x1e>
 8001902:	b5f0      	push	{r4, r5, r6, r7, lr}
 8001904:	6cc3      	ldr	r3, [r0, #76]	; 0x4c
 8001906:	6ac1      	ldr	r1, [r0, #44]	; 0x2c
 8001908:	6c82      	ldr	r2, [r0, #72]	; 0x48
 800190a:	3b01      	subs	r3, #1
 800190c:	4291      	cmp	r1, r2
 800190e:	b083      	sub	sp, #12
 8001910:	4604      	mov	r4, r0
 8001912:	64c3      	str	r3, [r0, #76]	; 0x4c
 8001914:	d000      	beq.n	8001918 <xTaskPriorityDisinherit+0x18>
 8001916:	b123      	cbz	r3, 8001922 <xTaskPriorityDisinherit+0x22>
 8001918:	2000      	movs	r0, #0
 800191a:	b003      	add	sp, #12
 800191c:	bdf0      	pop	{r4, r5, r6, r7, pc}
 800191e:	2000      	movs	r0, #0
 8001920:	4770      	bx	lr
 8001922:	1d01      	adds	r1, r0, #4
 8001924:	4608      	mov	r0, r1
 8001926:	9101      	str	r1, [sp, #4]
 8001928:	f7fe fe98 	bl	800065c <uxListRemove>
 800192c:	9901      	ldr	r1, [sp, #4]
 800192e:	4a0f      	ldr	r2, [pc, #60]	; (800196c <xTaskPriorityDisinherit+0x6c>)
 8001930:	b930      	cbnz	r0, 8001940 <xTaskPriorityDisinherit+0x40>
 8001932:	6ae5      	ldr	r5, [r4, #44]	; 0x2c
 8001934:	6813      	ldr	r3, [r2, #0]
 8001936:	2001      	movs	r0, #1
 8001938:	40a8      	lsls	r0, r5
 800193a:	ea23 0300 	bic.w	r3, r3, r0
 800193e:	6013      	str	r3, [r2, #0]
 8001940:	6ca3      	ldr	r3, [r4, #72]	; 0x48
 8001942:	6817      	ldr	r7, [r2, #0]
 8001944:	480a      	ldr	r0, [pc, #40]	; (8001970 <xTaskPriorityDisinherit+0x70>)
 8001946:	62e3      	str	r3, [r4, #44]	; 0x2c
 8001948:	2501      	movs	r5, #1
 800194a:	fa05 f603 	lsl.w	r6, r5, r3
 800194e:	433e      	orrs	r6, r7
 8001950:	f1c3 0705 	rsb	r7, r3, #5
 8001954:	eb03 0383 	add.w	r3, r3, r3, lsl #2
 8001958:	eb00 0083 	add.w	r0, r0, r3, lsl #2
 800195c:	61a7      	str	r7, [r4, #24]
 800195e:	6016      	str	r6, [r2, #0]
 8001960:	f7fe fe54 	bl	800060c <vListInsertEnd>
 8001964:	4628      	mov	r0, r5
 8001966:	b003      	add	sp, #12
 8001968:	bdf0      	pop	{r4, r5, r6, r7, pc}
 800196a:	bf00      	nop
 800196c:	20012cd8 	ldrdcs	r2, [r1], -r8
 8001970:	20012c64 	andcs	r2, r1, r4, ror #24

08001974 <prvSwitchTimerLists>:
 8001974:	e92d 43f0 	stmdb	sp!, {r4, r5, r6, r7, r8, r9, lr}
 8001978:	4e1d      	ldr	r6, [pc, #116]	; (80019f0 <prvSwitchTimerLists+0x7c>)
 800197a:	f8df 907c 	ldr.w	r9, [pc, #124]	; 80019f8 <prvSwitchTimerLists+0x84>
 800197e:	b085      	sub	sp, #20
 8001980:	f04f 0800 	mov.w	r8, #0
 8001984:	e00d      	b.n	80019a2 <prvSwitchTimerLists+0x2e>
 8001986:	68db      	ldr	r3, [r3, #12]
 8001988:	68dc      	ldr	r4, [r3, #12]
 800198a:	681f      	ldr	r7, [r3, #0]
 800198c:	1d25      	adds	r5, r4, #4
 800198e:	4628      	mov	r0, r5
 8001990:	f7fe fe64 	bl	800065c <uxListRemove>
 8001994:	6a23      	ldr	r3, [r4, #32]
 8001996:	4620      	mov	r0, r4
 8001998:	4798      	blx	r3
 800199a:	f894 3028 	ldrb.w	r3, [r4, #40]	; 0x28
 800199e:	075b      	lsls	r3, r3, #29
 80019a0:	d40a      	bmi.n	80019b8 <prvSwitchTimerLists+0x44>
 80019a2:	6833      	ldr	r3, [r6, #0]
 80019a4:	681a      	ldr	r2, [r3, #0]
 80019a6:	2a00      	cmp	r2, #0
 80019a8:	d1ed      	bne.n	8001986 <prvSwitchTimerLists+0x12>
 80019aa:	4a12      	ldr	r2, [pc, #72]	; (80019f4 <prvSwitchTimerLists+0x80>)
 80019ac:	6811      	ldr	r1, [r2, #0]
 80019ae:	6031      	str	r1, [r6, #0]
 80019b0:	6013      	str	r3, [r2, #0]
 80019b2:	b005      	add	sp, #20
 80019b4:	e8bd 83f0 	ldmia.w	sp!, {r4, r5, r6, r7, r8, r9, pc}
 80019b8:	69a3      	ldr	r3, [r4, #24]
 80019ba:	443b      	add	r3, r7
 80019bc:	429f      	cmp	r7, r3
 80019be:	4629      	mov	r1, r5
 80019c0:	d310      	bcc.n	80019e4 <prvSwitchTimerLists+0x70>
 80019c2:	f8d9 3000 	ldr.w	r3, [r9]
 80019c6:	2b00      	cmp	r3, #0
 80019c8:	d0eb      	beq.n	80019a2 <prvSwitchTimerLists+0x2e>
 80019ca:	e9cd 8701 	strd	r8, r7, [sp, #4]
 80019ce:	9403      	str	r4, [sp, #12]
 80019d0:	f7ff ff86 	bl	80018e0 <xTaskGetSchedulerState>
 80019d4:	2300      	movs	r3, #0
 80019d6:	f8d9 0000 	ldr.w	r0, [r9]
 80019da:	461a      	mov	r2, r3
 80019dc:	a901      	add	r1, sp, #4
 80019de:	f7fe fe87 	bl	80006f0 <xQueueGenericSend>
 80019e2:	e7de      	b.n	80019a2 <prvSwitchTimerLists+0x2e>
 80019e4:	6830      	ldr	r0, [r6, #0]
 80019e6:	6063      	str	r3, [r4, #4]
 80019e8:	6124      	str	r4, [r4, #16]
 80019ea:	f7fe fe1f 	bl	800062c <vListInsert>
 80019ee:	e7d8      	b.n	80019a2 <prvSwitchTimerLists+0x2e>
 80019f0:	20012d5c 	andcs	r2, r1, ip, asr sp
 80019f4:	20012d60 	andcs	r2, r1, r0, ror #26
 80019f8:	20012d90 	mulcs	r1, r0, sp

080019fc <prvTimerTask>:
 80019fc:	e92d 4ff0 	stmdb	sp!, {r4, r5, r6, r7, r8, r9, sl, fp, lr}
 8001a00:	4e87      	ldr	r6, [pc, #540]	; (8001c20 <prvTimerTask+0x224>)
 8001a02:	4c88      	ldr	r4, [pc, #544]	; (8001c24 <prvTimerTask+0x228>)
 8001a04:	f8df 8224 	ldr.w	r8, [pc, #548]	; 8001c2c <prvTimerTask+0x230>
 8001a08:	4d87      	ldr	r5, [pc, #540]	; (8001c28 <prvTimerTask+0x22c>)
 8001a0a:	f8df a224 	ldr.w	sl, [pc, #548]	; 8001c30 <prvTimerTask+0x234>
 8001a0e:	b089      	sub	sp, #36	; 0x24
 8001a10:	6833      	ldr	r3, [r6, #0]
 8001a12:	f8d3 b000 	ldr.w	fp, [r3]
 8001a16:	f1bb 0f00 	cmp.w	fp, #0
 8001a1a:	f000 809a 	beq.w	8001b52 <prvTimerTask+0x156>
 8001a1e:	68db      	ldr	r3, [r3, #12]
 8001a20:	f8d3 b000 	ldr.w	fp, [r3]
 8001a24:	f7ff fd08 	bl	8001438 <vTaskSuspendAll>
 8001a28:	f7ff fdfa 	bl	8001620 <xTaskGetTickCount>
 8001a2c:	6822      	ldr	r2, [r4, #0]
 8001a2e:	4282      	cmp	r2, r0
 8001a30:	4681      	mov	r9, r0
 8001a32:	f200 809f 	bhi.w	8001b74 <prvTimerTask+0x178>
 8001a36:	4583      	cmp	fp, r0
 8001a38:	6020      	str	r0, [r4, #0]
 8001a3a:	f240 80af 	bls.w	8001b9c <prvTimerTask+0x1a0>
 8001a3e:	2200      	movs	r2, #0
 8001a40:	6828      	ldr	r0, [r5, #0]
 8001a42:	ebab 0109 	sub.w	r1, fp, r9
 8001a46:	f7ff f983 	bl	8000d50 <vQueueWaitForMessageRestricted>
 8001a4a:	f7ff fcfd 	bl	8001448 <xTaskResumeAll>
 8001a4e:	b938      	cbnz	r0, 8001a60 <prvTimerTask+0x64>
 8001a50:	f04f 5380 	mov.w	r3, #268435456	; 0x10000000
 8001a54:	f8ca 3000 	str.w	r3, [sl]
 8001a58:	f3bf 8f4f 	dsb	sy
 8001a5c:	f3bf 8f6f 	isb	sy
 8001a60:	6828      	ldr	r0, [r5, #0]
 8001a62:	2200      	movs	r2, #0
 8001a64:	a902      	add	r1, sp, #8
 8001a66:	f7fe ffef 	bl	8000a48 <xQueueReceive>
 8001a6a:	2800      	cmp	r0, #0
 8001a6c:	d0d0      	beq.n	8001a10 <prvTimerTask+0x14>
 8001a6e:	9b02      	ldr	r3, [sp, #8]
 8001a70:	2b00      	cmp	r3, #0
 8001a72:	dbf5      	blt.n	8001a60 <prvTimerTask+0x64>
 8001a74:	9f04      	ldr	r7, [sp, #16]
 8001a76:	697b      	ldr	r3, [r7, #20]
 8001a78:	b113      	cbz	r3, 8001a80 <prvTimerTask+0x84>
 8001a7a:	1d38      	adds	r0, r7, #4
 8001a7c:	f7fe fdee 	bl	800065c <uxListRemove>
 8001a80:	f7ff fdce 	bl	8001620 <xTaskGetTickCount>
 8001a84:	6823      	ldr	r3, [r4, #0]
 8001a86:	4298      	cmp	r0, r3
 8001a88:	4681      	mov	r9, r0
 8001a8a:	d37a      	bcc.n	8001b82 <prvTimerTask+0x186>
 8001a8c:	9b02      	ldr	r3, [sp, #8]
 8001a8e:	f8c4 9000 	str.w	r9, [r4]
 8001a92:	2b09      	cmp	r3, #9
 8001a94:	d8e4      	bhi.n	8001a60 <prvTimerTask+0x64>
 8001a96:	e8df f003 	tbb	[pc, r3]
 8001a9a:	4b050505 	blmi	8142eb6 <_siccmram+0x140ede>
 8001a9e:	05055334 	streq	r5, [r5, #-820]	; 0xfffffccc
 8001aa2:	f897344b 			; <UNDEFINED> instruction: 0xf897344b
 8001aa6:	1028      	asrs	r0, r5, #32
 8001aa8:	9803      	ldr	r0, [sp, #12]
 8001aaa:	69ba      	ldr	r2, [r7, #24]
 8001aac:	613f      	str	r7, [r7, #16]
 8001aae:	1883      	adds	r3, r0, r2
 8001ab0:	f041 0101 	orr.w	r1, r1, #1
 8001ab4:	f887 1028 	strb.w	r1, [r7, #40]	; 0x28
 8001ab8:	bf2c      	ite	cs
 8001aba:	2101      	movcs	r1, #1
 8001abc:	2100      	movcc	r1, #0
 8001abe:	454b      	cmp	r3, r9
 8001ac0:	607b      	str	r3, [r7, #4]
 8001ac2:	d861      	bhi.n	8001b88 <prvTimerTask+0x18c>
 8001ac4:	eba9 0000 	sub.w	r0, r9, r0
 8001ac8:	4282      	cmp	r2, r0
 8001aca:	d82a      	bhi.n	8001b22 <prvTimerTask+0x126>
 8001acc:	6a3b      	ldr	r3, [r7, #32]
 8001ace:	4638      	mov	r0, r7
 8001ad0:	4798      	blx	r3
 8001ad2:	f897 3028 	ldrb.w	r3, [r7, #40]	; 0x28
 8001ad6:	6828      	ldr	r0, [r5, #0]
 8001ad8:	0759      	lsls	r1, r3, #29
 8001ada:	d5c2      	bpl.n	8001a62 <prvTimerTask+0x66>
 8001adc:	2800      	cmp	r0, #0
 8001ade:	d0c0      	beq.n	8001a62 <prvTimerTask+0x66>
 8001ae0:	69ba      	ldr	r2, [r7, #24]
 8001ae2:	9b03      	ldr	r3, [sp, #12]
 8001ae4:	2100      	movs	r1, #0
 8001ae6:	4413      	add	r3, r2
 8001ae8:	e9cd 3706 	strd	r3, r7, [sp, #24]
 8001aec:	9105      	str	r1, [sp, #20]
 8001aee:	f7ff fef7 	bl	80018e0 <xTaskGetSchedulerState>
 8001af2:	2300      	movs	r3, #0
 8001af4:	6828      	ldr	r0, [r5, #0]
 8001af6:	461a      	mov	r2, r3
 8001af8:	a905      	add	r1, sp, #20
 8001afa:	f7fe fdf9 	bl	80006f0 <xQueueGenericSend>
 8001afe:	6828      	ldr	r0, [r5, #0]
 8001b00:	e7af      	b.n	8001a62 <prvTimerTask+0x66>
 8001b02:	9a03      	ldr	r2, [sp, #12]
 8001b04:	f897 3028 	ldrb.w	r3, [r7, #40]	; 0x28
 8001b08:	613f      	str	r7, [r7, #16]
 8001b0a:	eb02 0109 	add.w	r1, r2, r9
 8001b0e:	f043 0301 	orr.w	r3, r3, #1
 8001b12:	4549      	cmp	r1, r9
 8001b14:	f887 3028 	strb.w	r3, [r7, #40]	; 0x28
 8001b18:	61ba      	str	r2, [r7, #24]
 8001b1a:	6079      	str	r1, [r7, #4]
 8001b1c:	d838      	bhi.n	8001b90 <prvTimerTask+0x194>
 8001b1e:	2a00      	cmp	r2, #0
 8001b20:	d09e      	beq.n	8001a60 <prvTimerTask+0x64>
 8001b22:	f8d8 0000 	ldr.w	r0, [r8]
 8001b26:	1d39      	adds	r1, r7, #4
 8001b28:	f7fe fd80 	bl	800062c <vListInsert>
 8001b2c:	6828      	ldr	r0, [r5, #0]
 8001b2e:	e798      	b.n	8001a62 <prvTimerTask+0x66>
 8001b30:	f897 3028 	ldrb.w	r3, [r7, #40]	; 0x28
 8001b34:	6828      	ldr	r0, [r5, #0]
 8001b36:	f023 0301 	bic.w	r3, r3, #1
 8001b3a:	f887 3028 	strb.w	r3, [r7, #40]	; 0x28
 8001b3e:	e790      	b.n	8001a62 <prvTimerTask+0x66>
 8001b40:	f897 3028 	ldrb.w	r3, [r7, #40]	; 0x28
 8001b44:	079a      	lsls	r2, r3, #30
 8001b46:	d541      	bpl.n	8001bcc <prvTimerTask+0x1d0>
 8001b48:	f023 0301 	bic.w	r3, r3, #1
 8001b4c:	f887 3028 	strb.w	r3, [r7, #40]	; 0x28
 8001b50:	e786      	b.n	8001a60 <prvTimerTask+0x64>
 8001b52:	f7ff fc71 	bl	8001438 <vTaskSuspendAll>
 8001b56:	f7ff fd63 	bl	8001620 <xTaskGetTickCount>
 8001b5a:	6822      	ldr	r2, [r4, #0]
 8001b5c:	4290      	cmp	r0, r2
 8001b5e:	4681      	mov	r9, r0
 8001b60:	d308      	bcc.n	8001b74 <prvTimerTask+0x178>
 8001b62:	f8d8 2000 	ldr.w	r2, [r8]
 8001b66:	f8c4 9000 	str.w	r9, [r4]
 8001b6a:	6812      	ldr	r2, [r2, #0]
 8001b6c:	fab2 f282 	clz	r2, r2
 8001b70:	0952      	lsrs	r2, r2, #5
 8001b72:	e765      	b.n	8001a40 <prvTimerTask+0x44>
 8001b74:	f7ff fefe 	bl	8001974 <prvSwitchTimerLists>
 8001b78:	f8c4 9000 	str.w	r9, [r4]
 8001b7c:	f7ff fc64 	bl	8001448 <xTaskResumeAll>
 8001b80:	e76e      	b.n	8001a60 <prvTimerTask+0x64>
 8001b82:	f7ff fef7 	bl	8001974 <prvSwitchTimerLists>
 8001b86:	e781      	b.n	8001a8c <prvTimerTask+0x90>
 8001b88:	4548      	cmp	r0, r9
 8001b8a:	d901      	bls.n	8001b90 <prvTimerTask+0x194>
 8001b8c:	2900      	cmp	r1, #0
 8001b8e:	d09d      	beq.n	8001acc <prvTimerTask+0xd0>
 8001b90:	6830      	ldr	r0, [r6, #0]
 8001b92:	1d39      	adds	r1, r7, #4
 8001b94:	f7fe fd4a 	bl	800062c <vListInsert>
 8001b98:	6828      	ldr	r0, [r5, #0]
 8001b9a:	e762      	b.n	8001a62 <prvTimerTask+0x66>
 8001b9c:	f7ff fc54 	bl	8001448 <xTaskResumeAll>
 8001ba0:	6832      	ldr	r2, [r6, #0]
 8001ba2:	68d2      	ldr	r2, [r2, #12]
 8001ba4:	68d7      	ldr	r7, [r2, #12]
 8001ba6:	1d39      	adds	r1, r7, #4
 8001ba8:	4608      	mov	r0, r1
 8001baa:	9101      	str	r1, [sp, #4]
 8001bac:	f7fe fd56 	bl	800065c <uxListRemove>
 8001bb0:	f897 0028 	ldrb.w	r0, [r7, #40]	; 0x28
 8001bb4:	9901      	ldr	r1, [sp, #4]
 8001bb6:	f010 0f04 	tst.w	r0, #4
 8001bba:	d10c      	bne.n	8001bd6 <prvTimerTask+0x1da>
 8001bbc:	f020 0001 	bic.w	r0, r0, #1
 8001bc0:	f887 0028 	strb.w	r0, [r7, #40]	; 0x28
 8001bc4:	6a3b      	ldr	r3, [r7, #32]
 8001bc6:	4638      	mov	r0, r7
 8001bc8:	4798      	blx	r3
 8001bca:	e749      	b.n	8001a60 <prvTimerTask+0x64>
 8001bcc:	4638      	mov	r0, r7
 8001bce:	f7fe fbb1 	bl	8000334 <vPortFree>
 8001bd2:	6828      	ldr	r0, [r5, #0]
 8001bd4:	e745      	b.n	8001a62 <prvTimerTask+0x66>
 8001bd6:	69ba      	ldr	r2, [r7, #24]
 8001bd8:	613f      	str	r7, [r7, #16]
 8001bda:	eb0b 0002 	add.w	r0, fp, r2
 8001bde:	4548      	cmp	r0, r9
 8001be0:	6078      	str	r0, [r7, #4]
 8001be2:	d903      	bls.n	8001bec <prvTimerTask+0x1f0>
 8001be4:	6830      	ldr	r0, [r6, #0]
 8001be6:	f7fe fd21 	bl	800062c <vListInsert>
 8001bea:	e7eb      	b.n	8001bc4 <prvTimerTask+0x1c8>
 8001bec:	eba9 030b 	sub.w	r3, r9, fp
 8001bf0:	429a      	cmp	r2, r3
 8001bf2:	d80f      	bhi.n	8001c14 <prvTimerTask+0x218>
 8001bf4:	682b      	ldr	r3, [r5, #0]
 8001bf6:	2b00      	cmp	r3, #0
 8001bf8:	d0e4      	beq.n	8001bc4 <prvTimerTask+0x1c8>
 8001bfa:	2300      	movs	r3, #0
 8001bfc:	e9cd 3b05 	strd	r3, fp, [sp, #20]
 8001c00:	9707      	str	r7, [sp, #28]
 8001c02:	f7ff fe6d 	bl	80018e0 <xTaskGetSchedulerState>
 8001c06:	2300      	movs	r3, #0
 8001c08:	6828      	ldr	r0, [r5, #0]
 8001c0a:	461a      	mov	r2, r3
 8001c0c:	a905      	add	r1, sp, #20
 8001c0e:	f7fe fd6f 	bl	80006f0 <xQueueGenericSend>
 8001c12:	e7d7      	b.n	8001bc4 <prvTimerTask+0x1c8>
 8001c14:	f8d8 0000 	ldr.w	r0, [r8]
 8001c18:	f7fe fd08 	bl	800062c <vListInsert>
 8001c1c:	e7d2      	b.n	8001bc4 <prvTimerTask+0x1c8>
 8001c1e:	bf00      	nop
 8001c20:	20012d5c 	andcs	r2, r1, ip, asr sp
 8001c24:	20012d8c 	andcs	r2, r1, ip, lsl #27
 8001c28:	20012d90 	mulcs	r1, r0, sp
 8001c2c:	20012d60 	andcs	r2, r1, r0, ror #26
 8001c30:	e000ed04 	and	lr, r0, r4, lsl #26

08001c34 <xTimerCreateTimerTask>:
 8001c34:	b5f0      	push	{r4, r5, r6, r7, lr}
 8001c36:	4c17      	ldr	r4, [pc, #92]	; (8001c94 <xTimerCreateTimerTask+0x60>)
 8001c38:	b083      	sub	sp, #12
 8001c3a:	f7fe fc23 	bl	8000484 <vPortEnterCritical>
 8001c3e:	6825      	ldr	r5, [r4, #0]
 8001c40:	b185      	cbz	r5, 8001c64 <xTimerCreateTimerTask+0x30>
 8001c42:	f7fe fc2f 	bl	80004a4 <vPortExitCritical>
 8001c46:	6820      	ldr	r0, [r4, #0]
 8001c48:	b150      	cbz	r0, 8001c60 <xTimerCreateTimerTask+0x2c>
 8001c4a:	4b13      	ldr	r3, [pc, #76]	; (8001c98 <xTimerCreateTimerTask+0x64>)
 8001c4c:	9301      	str	r3, [sp, #4]
 8001c4e:	2302      	movs	r3, #2
 8001c50:	9300      	str	r3, [sp, #0]
 8001c52:	4912      	ldr	r1, [pc, #72]	; (8001c9c <xTimerCreateTimerTask+0x68>)
 8001c54:	4812      	ldr	r0, [pc, #72]	; (8001ca0 <xTimerCreateTimerTask+0x6c>)
 8001c56:	2300      	movs	r3, #0
 8001c58:	f44f 7282 	mov.w	r2, #260	; 0x104
 8001c5c:	f7ff f9b8 	bl	8000fd0 <xTaskCreate>
 8001c60:	b003      	add	sp, #12
 8001c62:	bdf0      	pop	{r4, r5, r6, r7, pc}
 8001c64:	4f0f      	ldr	r7, [pc, #60]	; (8001ca4 <xTimerCreateTimerTask+0x70>)
 8001c66:	4e10      	ldr	r6, [pc, #64]	; (8001ca8 <xTimerCreateTimerTask+0x74>)
 8001c68:	4638      	mov	r0, r7
 8001c6a:	f7fe fcbf 	bl	80005ec <vListInitialise>
 8001c6e:	4630      	mov	r0, r6
 8001c70:	f7fe fcbc 	bl	80005ec <vListInitialise>
 8001c74:	4a0d      	ldr	r2, [pc, #52]	; (8001cac <xTimerCreateTimerTask+0x78>)
 8001c76:	4b0e      	ldr	r3, [pc, #56]	; (8001cb0 <xTimerCreateTimerTask+0x7c>)
 8001c78:	6017      	str	r7, [r2, #0]
 8001c7a:	210c      	movs	r1, #12
 8001c7c:	462a      	mov	r2, r5
 8001c7e:	200a      	movs	r0, #10
 8001c80:	601e      	str	r6, [r3, #0]
 8001c82:	f7fe fcff 	bl	8000684 <xQueueGenericCreate>
 8001c86:	6020      	str	r0, [r4, #0]
 8001c88:	2800      	cmp	r0, #0
 8001c8a:	d0da      	beq.n	8001c42 <xTimerCreateTimerTask+0xe>
 8001c8c:	4909      	ldr	r1, [pc, #36]	; (8001cb4 <xTimerCreateTimerTask+0x80>)
 8001c8e:	f7ff f835 	bl	8000cfc <vQueueAddToRegistry>
 8001c92:	e7d6      	b.n	8001c42 <xTimerCreateTimerTask+0xe>
 8001c94:	20012d90 	mulcs	r1, r0, sp
 8001c98:	20012d94 	mulcs	r1, r4, sp
 8001c9c:	08001f8c 	stmdaeq	r0, {r2, r3, r7, r8, r9, sl, fp, ip}
 8001ca0:	080019fd 	stmdaeq	r0, {r0, r2, r3, r4, r5, r6, r7, r8, fp, ip}
 8001ca4:	20012d64 	andcs	r2, r1, r4, ror #26
 8001ca8:	20012d78 	andcs	r2, r1, r8, ror sp
 8001cac:	20012d5c 	andcs	r2, r1, ip, asr sp
 8001cb0:	20012d60 	andcs	r2, r1, r0, ror #26
 8001cb4:	08001f84 	stmdaeq	r0, {r2, r7, r8, r9, sl, fp, ip}

08001cb8 <Reset_Handler>:
 8001cb8:	f8df d034 	ldr.w	sp, [pc, #52]	; 8001cf0 <L_loop1+0x12>
 8001cbc:	480d      	ldr	r0, [pc, #52]	; (8001cf4 <L_loop1+0x16>)
 8001cbe:	490e      	ldr	r1, [pc, #56]	; (8001cf8 <L_loop1+0x1a>)
 8001cc0:	4a0e      	ldr	r2, [pc, #56]	; (8001cfc <L_loop1+0x1e>)
 8001cc2:	2300      	movs	r3, #0
 8001cc4:	e002      	b.n	8001ccc <L_loop0_0>

08001cc6 <L_loop0>:
 8001cc6:	58d4      	ldr	r4, [r2, r3]
 8001cc8:	50c4      	str	r4, [r0, r3]
 8001cca:	3304      	adds	r3, #4

08001ccc <L_loop0_0>:
 8001ccc:	18c4      	adds	r4, r0, r3
 8001cce:	428c      	cmp	r4, r1
 8001cd0:	d3f9      	bcc.n	8001cc6 <L_loop0>
 8001cd2:	4a0b      	ldr	r2, [pc, #44]	; (8001d00 <L_loop1+0x22>)
 8001cd4:	4c0b      	ldr	r4, [pc, #44]	; (8001d04 <L_loop1+0x26>)
 8001cd6:	2300      	movs	r3, #0
 8001cd8:	e001      	b.n	8001cde <L_loop1>

08001cda <L_loop2>:
 8001cda:	6013      	str	r3, [r2, #0]
 8001cdc:	3204      	adds	r2, #4

08001cde <L_loop1>:
 8001cde:	42a2      	cmp	r2, r4
 8001ce0:	d3fb      	bcc.n	8001cda <L_loop2>
 8001ce2:	f000 f813 	bl	8001d0c <SystemInit>
 8001ce6:	f000 f907 	bl	8001ef8 <__libc_init_array>
 8001cea:	f000 f8e1 	bl	8001eb0 <main>
 8001cee:	4770      	bx	lr
 8001cf0:	20020000 	andcs	r0, r2, r0
 8001cf4:	20000000 	andcs	r0, r0, r0
 8001cf8:	2000001c 	andcs	r0, r0, ip, lsl r0
 8001cfc:	08001fbc 	stmdaeq	r0, {r2, r3, r4, r5, r7, r8, r9, sl, fp, ip}
 8001d00:	2000001c 	andcs	r0, r0, ip, lsl r0
 8001d04:	20012dd8 	ldrdcs	r2, [r1], -r8

08001d08 <ADC_IRQHandler>:
 8001d08:	e7fe      	b.n	8001d08 <ADC_IRQHandler>
	...

08001d0c <SystemInit>:
 8001d0c:	493a      	ldr	r1, [pc, #232]	; (8001df8 <SystemInit+0xec>)
 8001d0e:	4b3b      	ldr	r3, [pc, #236]	; (8001dfc <SystemInit+0xf0>)
 8001d10:	f8d1 2088 	ldr.w	r2, [r1, #136]	; 0x88
 8001d14:	483a      	ldr	r0, [pc, #232]	; (8001e00 <SystemInit+0xf4>)
 8001d16:	b410      	push	{r4}
 8001d18:	f442 0270 	orr.w	r2, r2, #15728640	; 0xf00000
 8001d1c:	f8c1 2088 	str.w	r2, [r1, #136]	; 0x88
 8001d20:	681a      	ldr	r2, [r3, #0]
 8001d22:	2100      	movs	r1, #0
 8001d24:	f042 0201 	orr.w	r2, r2, #1
 8001d28:	601a      	str	r2, [r3, #0]
 8001d2a:	6099      	str	r1, [r3, #8]
 8001d2c:	681a      	ldr	r2, [r3, #0]
 8001d2e:	f022 7284 	bic.w	r2, r2, #17301504	; 0x1080000
 8001d32:	f422 3280 	bic.w	r2, r2, #65536	; 0x10000
 8001d36:	601a      	str	r2, [r3, #0]
 8001d38:	6058      	str	r0, [r3, #4]
 8001d3a:	681a      	ldr	r2, [r3, #0]
 8001d3c:	f422 2280 	bic.w	r2, r2, #262144	; 0x40000
 8001d40:	601a      	str	r2, [r3, #0]
 8001d42:	60d9      	str	r1, [r3, #12]
 8001d44:	681a      	ldr	r2, [r3, #0]
 8001d46:	b083      	sub	sp, #12
 8001d48:	f442 3280 	orr.w	r2, r2, #65536	; 0x10000
 8001d4c:	601a      	str	r2, [r3, #0]
 8001d4e:	9101      	str	r1, [sp, #4]
 8001d50:	9a01      	ldr	r2, [sp, #4]
 8001d52:	f5b2 4fa0 	cmp.w	r2, #20480	; 0x5000
 8001d56:	d307      	bcc.n	8001d68 <SystemInit+0x5c>
 8001d58:	e009      	b.n	8001d6e <SystemInit+0x62>
 8001d5a:	9a01      	ldr	r2, [sp, #4]
 8001d5c:	3201      	adds	r2, #1
 8001d5e:	9201      	str	r2, [sp, #4]
 8001d60:	9a01      	ldr	r2, [sp, #4]
 8001d62:	f5b2 4fa0 	cmp.w	r2, #20480	; 0x5000
 8001d66:	d202      	bcs.n	8001d6e <SystemInit+0x62>
 8001d68:	681a      	ldr	r2, [r3, #0]
 8001d6a:	0390      	lsls	r0, r2, #14
 8001d6c:	d5f5      	bpl.n	8001d5a <SystemInit+0x4e>
 8001d6e:	4b23      	ldr	r3, [pc, #140]	; (8001dfc <SystemInit+0xf0>)
 8001d70:	681a      	ldr	r2, [r3, #0]
 8001d72:	0391      	lsls	r1, r2, #14
 8001d74:	d537      	bpl.n	8001de6 <SystemInit+0xda>
 8001d76:	6c1a      	ldr	r2, [r3, #64]	; 0x40
 8001d78:	4922      	ldr	r1, [pc, #136]	; (8001e04 <SystemInit+0xf8>)
 8001d7a:	4823      	ldr	r0, [pc, #140]	; (8001e08 <SystemInit+0xfc>)
 8001d7c:	f042 5280 	orr.w	r2, r2, #268435456	; 0x10000000
 8001d80:	641a      	str	r2, [r3, #64]	; 0x40
 8001d82:	680a      	ldr	r2, [r1, #0]
 8001d84:	2401      	movs	r4, #1
 8001d86:	f364 328f 	bfi	r2, r4, #14, #2
 8001d8a:	600a      	str	r2, [r1, #0]
 8001d8c:	689a      	ldr	r2, [r3, #8]
 8001d8e:	f36f 1207 	bfc	r2, #4, #4
 8001d92:	609a      	str	r2, [r3, #8]
 8001d94:	689a      	ldr	r2, [r3, #8]
 8001d96:	2102      	movs	r1, #2
 8001d98:	f361 324f 	bfi	r2, r1, #13, #3
 8001d9c:	609a      	str	r2, [r3, #8]
 8001d9e:	689a      	ldr	r2, [r3, #8]
 8001da0:	2104      	movs	r1, #4
 8001da2:	f361 228c 	bfi	r2, r1, #10, #3
 8001da6:	609a      	str	r2, [r3, #8]
 8001da8:	6058      	str	r0, [r3, #4]
 8001daa:	685a      	ldr	r2, [r3, #4]
 8001dac:	f442 0280 	orr.w	r2, r2, #4194304	; 0x400000
 8001db0:	605a      	str	r2, [r3, #4]
 8001db2:	681a      	ldr	r2, [r3, #0]
 8001db4:	f042 7280 	orr.w	r2, r2, #16777216	; 0x1000000
 8001db8:	601a      	str	r2, [r3, #0]
 8001dba:	681a      	ldr	r2, [r3, #0]
 8001dbc:	0192      	lsls	r2, r2, #6
 8001dbe:	d5fc      	bpl.n	8001dba <SystemInit+0xae>
 8001dc0:	4a12      	ldr	r2, [pc, #72]	; (8001e0c <SystemInit+0x100>)
 8001dc2:	490e      	ldr	r1, [pc, #56]	; (8001dfc <SystemInit+0xf0>)
 8001dc4:	f240 7005 	movw	r0, #1797	; 0x705
 8001dc8:	6010      	str	r0, [r2, #0]
 8001dca:	689a      	ldr	r2, [r3, #8]
 8001dcc:	f36f 0201 	bfc	r2, #0, #2
 8001dd0:	609a      	str	r2, [r3, #8]
 8001dd2:	689a      	ldr	r2, [r3, #8]
 8001dd4:	2002      	movs	r0, #2
 8001dd6:	f360 0201 	bfi	r2, r0, #0, #2
 8001dda:	609a      	str	r2, [r3, #8]
 8001ddc:	688b      	ldr	r3, [r1, #8]
 8001dde:	f3c3 0381 	ubfx	r3, r3, #2, #2
 8001de2:	2b02      	cmp	r3, #2
 8001de4:	d1fa      	bne.n	8001ddc <SystemInit+0xd0>
 8001de6:	4b04      	ldr	r3, [pc, #16]	; (8001df8 <SystemInit+0xec>)
 8001de8:	f04f 6200 	mov.w	r2, #134217728	; 0x8000000
 8001dec:	609a      	str	r2, [r3, #8]
 8001dee:	b003      	add	sp, #12
 8001df0:	f85d 4b04 	ldr.w	r4, [sp], #4
 8001df4:	4770      	bx	lr
 8001df6:	bf00      	nop
 8001df8:	e000ed00 	and	lr, r0, r0, lsl #26
 8001dfc:	40023800 	andmi	r3, r2, r0, lsl #16
 8001e00:	24003010 	strcs	r3, [r0], #-16
 8001e04:	40007000 	andmi	r7, r0, r0
 8001e08:	07005408 	streq	r5, [r0, -r8, lsl #8]
 8001e0c:	40023c00 	andmi	r3, r2, r0, lsl #24

08001e10 <SystemCoreClockUpdate>:
 8001e10:	4a16      	ldr	r2, [pc, #88]	; (8001e6c <SystemCoreClockUpdate+0x5c>)
 8001e12:	6893      	ldr	r3, [r2, #8]
 8001e14:	f3c3 0381 	ubfx	r3, r3, #2, #2
 8001e18:	2b01      	cmp	r3, #1
 8001e1a:	d00c      	beq.n	8001e36 <SystemCoreClockUpdate+0x26>
 8001e1c:	2b02      	cmp	r3, #2
 8001e1e:	d00c      	beq.n	8001e3a <SystemCoreClockUpdate+0x2a>
 8001e20:	4b13      	ldr	r3, [pc, #76]	; (8001e70 <SystemCoreClockUpdate+0x60>)
 8001e22:	4a12      	ldr	r2, [pc, #72]	; (8001e6c <SystemCoreClockUpdate+0x5c>)
 8001e24:	4813      	ldr	r0, [pc, #76]	; (8001e74 <SystemCoreClockUpdate+0x64>)
 8001e26:	6892      	ldr	r2, [r2, #8]
 8001e28:	4913      	ldr	r1, [pc, #76]	; (8001e78 <SystemCoreClockUpdate+0x68>)
 8001e2a:	f3c2 1203 	ubfx	r2, r2, #4, #4
 8001e2e:	5c82      	ldrb	r2, [r0, r2]
 8001e30:	40d3      	lsrs	r3, r2
 8001e32:	600b      	str	r3, [r1, #0]
 8001e34:	4770      	bx	lr
 8001e36:	4b11      	ldr	r3, [pc, #68]	; (8001e7c <SystemCoreClockUpdate+0x6c>)
 8001e38:	e7f3      	b.n	8001e22 <SystemCoreClockUpdate+0x12>
 8001e3a:	6853      	ldr	r3, [r2, #4]
 8001e3c:	6851      	ldr	r1, [r2, #4]
 8001e3e:	f413 0f80 	tst.w	r3, #4194304	; 0x400000
 8001e42:	f001 013f 	and.w	r1, r1, #63	; 0x3f
 8001e46:	6853      	ldr	r3, [r2, #4]
 8001e48:	bf0c      	ite	eq
 8001e4a:	4a09      	ldreq	r2, [pc, #36]	; (8001e70 <SystemCoreClockUpdate+0x60>)
 8001e4c:	4a0b      	ldrne	r2, [pc, #44]	; (8001e7c <SystemCoreClockUpdate+0x6c>)
 8001e4e:	fbb2 f1f1 	udiv	r1, r2, r1
 8001e52:	4a06      	ldr	r2, [pc, #24]	; (8001e6c <SystemCoreClockUpdate+0x5c>)
 8001e54:	6852      	ldr	r2, [r2, #4]
 8001e56:	f3c2 4201 	ubfx	r2, r2, #16, #2
 8001e5a:	f3c3 1388 	ubfx	r3, r3, #6, #9
 8001e5e:	3201      	adds	r2, #1
 8001e60:	fb03 f301 	mul.w	r3, r3, r1
 8001e64:	0052      	lsls	r2, r2, #1
 8001e66:	fbb3 f3f2 	udiv	r3, r3, r2
 8001e6a:	e7da      	b.n	8001e22 <SystemCoreClockUpdate+0x12>
 8001e6c:	40023800 	andmi	r3, r2, r0, lsl #16
 8001e70:	00f42400 	rscseq	r2, r4, r0, lsl #8
 8001e74:	20000008 	andcs	r0, r0, r8
 8001e78:	20000018 	andcs	r0, r0, r8, lsl r0
 8001e7c:	007a1200 	rsbseq	r1, sl, r0, lsl #4

08001e80 <NMI_Handler>:
 8001e80:	4770      	bx	lr
 8001e82:	bf00      	nop

08001e84 <HardFault_Handler>:
 8001e84:	e7fe      	b.n	8001e84 <HardFault_Handler>
 8001e86:	bf00      	nop

08001e88 <MemManage_Handler>:
 8001e88:	e7fe      	b.n	8001e88 <MemManage_Handler>
 8001e8a:	bf00      	nop

08001e8c <BusFault_Handler>:
 8001e8c:	e7fe      	b.n	8001e8c <BusFault_Handler>
 8001e8e:	bf00      	nop

08001e90 <UsageFault_Handler>:
 8001e90:	e7fe      	b.n	8001e90 <UsageFault_Handler>
 8001e92:	bf00      	nop

08001e94 <DebugMon_Handler>:
 8001e94:	4770      	bx	lr
 8001e96:	bf00      	nop

08001e98 <vTaskLedToggle>:
 8001e98:	b508      	push	{r3, lr}
 8001e9a:	f44f 70fa 	mov.w	r0, #500	; 0x1f4
 8001e9e:	f7ff fb73 	bl	8001588 <vTaskDelay>
 8001ea2:	e7fa      	b.n	8001e9a <vTaskLedToggle+0x2>

08001ea4 <vTaskUsartTest>:
 8001ea4:	b508      	push	{r3, lr}
 8001ea6:	f44f 707a 	mov.w	r0, #1000	; 0x3e8
 8001eaa:	f7ff fb6d 	bl	8001588 <vTaskDelay>
 8001eae:	e7fa      	b.n	8001ea6 <vTaskUsartTest+0x2>

08001eb0 <main>:
 8001eb0:	b500      	push	{lr}
 8001eb2:	b083      	sub	sp, #12
 8001eb4:	f7ff ffac 	bl	8001e10 <SystemCoreClockUpdate>
 8001eb8:	4c0a      	ldr	r4, [pc, #40]	; (8001ee4 <main+0x34>)
 8001eba:	490b      	ldr	r1, [pc, #44]	; (8001ee8 <main+0x38>)
 8001ebc:	9401      	str	r4, [sp, #4]
 8001ebe:	2300      	movs	r3, #0
 8001ec0:	9300      	str	r3, [sp, #0]
 8001ec2:	2280      	movs	r2, #128	; 0x80
 8001ec4:	4809      	ldr	r0, [pc, #36]	; (8001eec <main+0x3c>)
 8001ec6:	f7ff f883 	bl	8000fd0 <xTaskCreate>
 8001eca:	3404      	adds	r4, #4
 8001ecc:	2202      	movs	r2, #2
 8001ece:	4908      	ldr	r1, [pc, #32]	; (8001ef0 <main+0x40>)
 8001ed0:	9200      	str	r2, [sp, #0]
 8001ed2:	2300      	movs	r3, #0
 8001ed4:	2280      	movs	r2, #128	; 0x80
 8001ed6:	4807      	ldr	r0, [pc, #28]	; (8001ef4 <main+0x44>)
 8001ed8:	9401      	str	r4, [sp, #4]
 8001eda:	f7ff f879 	bl	8000fd0 <xTaskCreate>
 8001ede:	f7ff f9af 	bl	8001240 <vTaskStartScheduler>
 8001ee2:	e7fe      	b.n	8001ee2 <main+0x32>
 8001ee4:	10000000 	andne	r0, r0, r0
 8001ee8:	08001f94 	stmdaeq	r0, {r2, r4, r7, r8, r9, sl, fp, ip}
 8001eec:	08001e99 	stmdaeq	r0, {r0, r3, r4, r7, r9, sl, fp, ip}
 8001ef0:	08001fa4 	stmdaeq	r0, {r2, r5, r7, r8, r9, sl, fp, ip}
 8001ef4:	08001ea5 	stmdaeq	r0, {r0, r2, r5, r7, r9, sl, fp, ip}

08001ef8 <__libc_init_array>:
 8001ef8:	b570      	push	{r4, r5, r6, lr}
 8001efa:	4d0d      	ldr	r5, [pc, #52]	; (8001f30 <__libc_init_array+0x38>)
 8001efc:	4c0d      	ldr	r4, [pc, #52]	; (8001f34 <__libc_init_array+0x3c>)
 8001efe:	1b64      	subs	r4, r4, r5
 8001f00:	10a4      	asrs	r4, r4, #2
 8001f02:	2600      	movs	r6, #0
 8001f04:	42a6      	cmp	r6, r4
 8001f06:	d109      	bne.n	8001f1c <__libc_init_array+0x24>
 8001f08:	4d0b      	ldr	r5, [pc, #44]	; (8001f38 <__libc_init_array+0x40>)
 8001f0a:	4c0c      	ldr	r4, [pc, #48]	; (8001f3c <__libc_init_array+0x44>)
 8001f0c:	f000 f82e 	bl	8001f6c <_init>
 8001f10:	1b64      	subs	r4, r4, r5
 8001f12:	10a4      	asrs	r4, r4, #2
 8001f14:	2600      	movs	r6, #0
 8001f16:	42a6      	cmp	r6, r4
 8001f18:	d105      	bne.n	8001f26 <__libc_init_array+0x2e>
 8001f1a:	bd70      	pop	{r4, r5, r6, pc}
 8001f1c:	f855 3b04 	ldr.w	r3, [r5], #4
 8001f20:	4798      	blx	r3
 8001f22:	3601      	adds	r6, #1
 8001f24:	e7ee      	b.n	8001f04 <__libc_init_array+0xc>
 8001f26:	f855 3b04 	ldr.w	r3, [r5], #4
 8001f2a:	4798      	blx	r3
 8001f2c:	3601      	adds	r6, #1
 8001f2e:	e7f2      	b.n	8001f16 <__libc_init_array+0x1e>
 8001f30:	08001fb4 	stmdaeq	r0, {r2, r4, r5, r7, r8, r9, sl, fp, ip}
 8001f34:	08001fb4 	stmdaeq	r0, {r2, r4, r5, r7, r8, r9, sl, fp, ip}
 8001f38:	08001fb4 	stmdaeq	r0, {r2, r4, r5, r7, r8, r9, sl, fp, ip}
 8001f3c:	08001fb8 	stmdaeq	r0, {r3, r4, r5, r7, r8, r9, sl, fp, ip}

08001f40 <memcpy>:
 8001f40:	440a      	add	r2, r1
 8001f42:	4291      	cmp	r1, r2
 8001f44:	f100 33ff 	add.w	r3, r0, #4294967295
 8001f48:	d100      	bne.n	8001f4c <memcpy+0xc>
 8001f4a:	4770      	bx	lr
 8001f4c:	b510      	push	{r4, lr}
 8001f4e:	f811 4b01 	ldrb.w	r4, [r1], #1
 8001f52:	f803 4f01 	strb.w	r4, [r3, #1]!
 8001f56:	4291      	cmp	r1, r2
 8001f58:	d1f9      	bne.n	8001f4e <memcpy+0xe>
 8001f5a:	bd10      	pop	{r4, pc}

08001f5c <memset>:
 8001f5c:	4402      	add	r2, r0
 8001f5e:	4603      	mov	r3, r0
 8001f60:	4293      	cmp	r3, r2
 8001f62:	d100      	bne.n	8001f66 <memset+0xa>
 8001f64:	4770      	bx	lr
 8001f66:	f803 1b01 	strb.w	r1, [r3], #1
 8001f6a:	e7f9      	b.n	8001f60 <memset+0x4>

08001f6c <_init>:
 8001f6c:	b5f8      	push	{r3, r4, r5, r6, r7, lr}
 8001f6e:	bf00      	nop
 8001f70:	bcf8      	pop	{r3, r4, r5, r6, r7}
 8001f72:	bc08      	pop	{r3}
 8001f74:	469e      	mov	lr, r3
 8001f76:	4770      	bx	lr

08001f78 <_fini>:
 8001f78:	b5f8      	push	{r3, r4, r5, r6, r7, lr}
 8001f7a:	bf00      	nop
 8001f7c:	bcf8      	pop	{r3, r4, r5, r6, r7}
 8001f7e:	bc08      	pop	{r3}
 8001f80:	469e      	mov	lr, r3
 8001f82:	4770      	bx	lr

Disassembly of section .ccmram:

10000000 <xHandleTaskLedToggle>:
10000000:	00000000 	andeq	r0, r0, r0

10000004 <xHandleTaskUsartTest>:
10000004:	00000000 	andeq	r0, r0, r0
